	.file	"cgi.cpp"
# GNU C++17 (Ubuntu 11.4.0-1ubuntu1~22.04) version 11.4.0 (x86_64-linux-gnu)
#	compiled by GNU C version 11.4.0, GMP version 6.2.1, MPFR version 4.1.0, MPC version 1.2.1, isl version isl-0.24-GMP

# GGC heuristics: --param ggc-min-expand=100 --param ggc-min-heapsize=131072
# options passed: -mtune=generic -march=x86-64 -fasynchronous-unwind-tables -fstack-protector-strong -fstack-clash-protection -fcf-protection
	.text
	.section	.text._ZNSt11char_traitsIcE6lengthEPKc,"axG",@progbits,_ZNSt11char_traitsIcE6lengthEPKc,comdat
	.weak	_ZNSt11char_traitsIcE6lengthEPKc
	.type	_ZNSt11char_traitsIcE6lengthEPKc, @function
_ZNSt11char_traitsIcE6lengthEPKc:
.LFB450:
	.cfi_startproc
	endbr64	
# BLOCK 2 seq:0
# PRED: ENTRY (FALLTHRU)
	pushq	%rbp	#
	.cfi_def_cfa_offset 16
	.cfi_offset 6, -16
	movq	%rsp, %rbp	#,
	.cfi_def_cfa_register 6
	subq	$32, %rsp	#,
	movq	%rdi, -24(%rbp)	# __s, __s
	movq	-24(%rbp), %rax	# __s, tmp85
	movq	%rax, -8(%rbp)	# tmp85, __s
# /usr/include/c++/11/bits/char_traits.h:290:       return __builtin_is_constant_evaluated();
	movl	$0, %eax	#, D.70196
# /usr/include/c++/11/bits/char_traits.h:396: 	if (__constant_string_p(__s))
	testb	%al, %al	# D.70196
# SUCC: 3 (FALLTHRU) 4
	je	.L3	#,
# BLOCK 3 seq:1
# PRED: 2 (FALLTHRU)
# /usr/include/c++/11/bits/char_traits.h:397: 	  return __gnu_cxx::char_traits<char_type>::length(__s);
	movq	-24(%rbp), %rax	# __s, tmp86
	movq	%rax, %rdi	# tmp86,
	call	_ZN9__gnu_cxx11char_traitsIcE6lengthEPKc	#
# SUCC: 5 [always] 
# /usr/include/c++/11/bits/char_traits.h:397: 	  return __gnu_cxx::char_traits<char_type>::length(__s);
	jmp	.L4	#
# BLOCK 4 seq:2
# PRED: 2
.L3:
# /usr/include/c++/11/bits/char_traits.h:399: 	return __builtin_strlen(__s);
	movq	-24(%rbp), %rax	# __s, tmp88
	movq	%rax, %rdi	# tmp88,
	call	strlen@PLT	#
# SUCC: 5 [always]  (FALLTHRU)
# /usr/include/c++/11/bits/char_traits.h:399: 	return __builtin_strlen(__s);
	nop	
# BLOCK 5 seq:3
# PRED: 4 [always]  (FALLTHRU) 3 [always] 
.L4:
# /usr/include/c++/11/bits/char_traits.h:400:       }
	leave	
	.cfi_def_cfa 7, 8
# SUCC: EXIT [always] 
	ret	
	.cfi_endproc
.LFE450:
	.size	_ZNSt11char_traitsIcE6lengthEPKc, .-_ZNSt11char_traitsIcE6lengthEPKc
	.local	_ZStL8__ioinit
	.comm	_ZStL8__ioinit,1,1
	.section	.rodata
.LC0:
	.string	"html"
	.section	.text._ZN5cgicc7htmlTag7getNameEv,"axG",@progbits,_ZN5cgicc7htmlTag7getNameEv,comdat
	.weak	_ZN5cgicc7htmlTag7getNameEv
	.type	_ZN5cgicc7htmlTag7getNameEv, @function
_ZN5cgicc7htmlTag7getNameEv:
.LFB2405:
	.cfi_startproc
	endbr64	
# BLOCK 2 seq:0
# PRED: ENTRY (FALLTHRU)
	pushq	%rbp	#
	.cfi_def_cfa_offset 16
	.cfi_offset 6, -16
	movq	%rsp, %rbp	#,
	.cfi_def_cfa_register 6
# ../cgicc/HTMLClasses.h:105:   BOOLEAN_ELEMENT (html,       "html");       // HTML document
	leaq	.LC0(%rip), %rax	#, _1
	popq	%rbp	#
	.cfi_def_cfa 7, 8
# SUCC: EXIT [always] 
	ret	
	.cfi_endproc
.LFE2405:
	.size	_ZN5cgicc7htmlTag7getNameEv, .-_ZN5cgicc7htmlTag7getNameEv
	.section	.rodata
.LC1:
	.string	"head"
	.section	.text._ZN5cgicc7headTag7getNameEv,"axG",@progbits,_ZN5cgicc7headTag7getNameEv,comdat
	.weak	_ZN5cgicc7headTag7getNameEv
	.type	_ZN5cgicc7headTag7getNameEv, @function
_ZN5cgicc7headTag7getNameEv:
.LFB2406:
	.cfi_startproc
	endbr64	
# BLOCK 2 seq:0
# PRED: ENTRY (FALLTHRU)
	pushq	%rbp	#
	.cfi_def_cfa_offset 16
	.cfi_offset 6, -16
	movq	%rsp, %rbp	#,
	.cfi_def_cfa_register 6
# ../cgicc/HTMLClasses.h:106:   BOOLEAN_ELEMENT (head,       "head");       // document head
	leaq	.LC1(%rip), %rax	#, _1
	popq	%rbp	#
	.cfi_def_cfa 7, 8
# SUCC: EXIT [always] 
	ret	
	.cfi_endproc
.LFE2406:
	.size	_ZN5cgicc7headTag7getNameEv, .-_ZN5cgicc7headTag7getNameEv
	.section	.rodata
.LC2:
	.string	"title"
	.section	.text._ZN5cgicc8titleTag7getNameEv,"axG",@progbits,_ZN5cgicc8titleTag7getNameEv,comdat
	.weak	_ZN5cgicc8titleTag7getNameEv
	.type	_ZN5cgicc8titleTag7getNameEv, @function
_ZN5cgicc8titleTag7getNameEv:
.LFB2407:
	.cfi_startproc
	endbr64	
# BLOCK 2 seq:0
# PRED: ENTRY (FALLTHRU)
	pushq	%rbp	#
	.cfi_def_cfa_offset 16
	.cfi_offset 6, -16
	movq	%rsp, %rbp	#,
	.cfi_def_cfa_register 6
# ../cgicc/HTMLClasses.h:107:   BOOLEAN_ELEMENT (title,      "title");      // document title
	leaq	.LC2(%rip), %rax	#, _1
	popq	%rbp	#
	.cfi_def_cfa 7, 8
# SUCC: EXIT [always] 
	ret	
	.cfi_endproc
.LFE2407:
	.size	_ZN5cgicc8titleTag7getNameEv, .-_ZN5cgicc8titleTag7getNameEv
	.section	.rodata
.LC3:
	.string	"body"
	.section	.text._ZN5cgicc7bodyTag7getNameEv,"axG",@progbits,_ZN5cgicc7bodyTag7getNameEv,comdat
	.weak	_ZN5cgicc7bodyTag7getNameEv
	.type	_ZN5cgicc7bodyTag7getNameEv, @function
_ZN5cgicc7bodyTag7getNameEv:
.LFB2410:
	.cfi_startproc
	endbr64	
# BLOCK 2 seq:0
# PRED: ENTRY (FALLTHRU)
	pushq	%rbp	#
	.cfi_def_cfa_offset 16
	.cfi_offset 6, -16
	movq	%rsp, %rbp	#,
	.cfi_def_cfa_register 6
# ../cgicc/HTMLClasses.h:110:   BOOLEAN_ELEMENT (body,       "body");       // document body
	leaq	.LC3(%rip), %rax	#, _1
	popq	%rbp	#
	.cfi_def_cfa 7, 8
# SUCC: EXIT [always] 
	ret	
	.cfi_endproc
.LFE2410:
	.size	_ZN5cgicc7bodyTag7getNameEv, .-_ZN5cgicc7bodyTag7getNameEv
	.section	.rodata
.LC4:
	.string	"div"
	.section	.text._ZN5cgicc6divTag7getNameEv,"axG",@progbits,_ZN5cgicc6divTag7getNameEv,comdat
	.weak	_ZN5cgicc6divTag7getNameEv
	.type	_ZN5cgicc6divTag7getNameEv, @function
_ZN5cgicc6divTag7getNameEv:
.LFB2411:
	.cfi_startproc
	endbr64	
# BLOCK 2 seq:0
# PRED: ENTRY (FALLTHRU)
	pushq	%rbp	#
	.cfi_def_cfa_offset 16
	.cfi_offset 6, -16
	movq	%rsp, %rbp	#,
	.cfi_def_cfa_register 6
# ../cgicc/HTMLClasses.h:111:   BOOLEAN_ELEMENT (div,        "div");        // block-level grouping
	leaq	.LC4(%rip), %rax	#, _1
	popq	%rbp	#
	.cfi_def_cfa 7, 8
# SUCC: EXIT [always] 
	ret	
	.cfi_endproc
.LFE2411:
	.size	_ZN5cgicc6divTag7getNameEv, .-_ZN5cgicc6divTag7getNameEv
	.section	.rodata
.LC5:
	.string	"h1"
	.section	.text._ZN5cgicc5h1Tag7getNameEv,"axG",@progbits,_ZN5cgicc5h1Tag7getNameEv,comdat
	.weak	_ZN5cgicc5h1Tag7getNameEv
	.type	_ZN5cgicc5h1Tag7getNameEv, @function
_ZN5cgicc5h1Tag7getNameEv:
.LFB2413:
	.cfi_startproc
	endbr64	
# BLOCK 2 seq:0
# PRED: ENTRY (FALLTHRU)
	pushq	%rbp	#
	.cfi_def_cfa_offset 16
	.cfi_offset 6, -16
	movq	%rsp, %rbp	#,
	.cfi_def_cfa_register 6
# ../cgicc/HTMLClasses.h:113:   BOOLEAN_ELEMENT (h1,         "h1");         // level 1 heading
	leaq	.LC5(%rip), %rax	#, _1
	popq	%rbp	#
	.cfi_def_cfa 7, 8
# SUCC: EXIT [always] 
	ret	
	.cfi_endproc
.LFE2413:
	.size	_ZN5cgicc5h1Tag7getNameEv, .-_ZN5cgicc5h1Tag7getNameEv
	.section	.rodata
.LC6:
	.string	"br"
	.section	.text._ZN5cgicc5brTag7getNameEv,"axG",@progbits,_ZN5cgicc5brTag7getNameEv,comdat
	.weak	_ZN5cgicc5brTag7getNameEv
	.type	_ZN5cgicc5brTag7getNameEv, @function
_ZN5cgicc5brTag7getNameEv:
.LFB2435:
	.cfi_startproc
	endbr64	
# BLOCK 2 seq:0
# PRED: ENTRY (FALLTHRU)
	pushq	%rbp	#
	.cfi_def_cfa_offset 16
	.cfi_offset 6, -16
	movq	%rsp, %rbp	#,
	.cfi_def_cfa_register 6
# ../cgicc/HTMLClasses.h:138:   ATOMIC_ELEMENT  (br,         "br");         // line break
	leaq	.LC6(%rip), %rax	#, _1
	popq	%rbp	#
	.cfi_def_cfa 7, 8
# SUCC: EXIT [always] 
	ret	
	.cfi_endproc
.LFE2435:
	.size	_ZN5cgicc5brTag7getNameEv, .-_ZN5cgicc5brTag7getNameEv
	.section	.rodata
.LC7:
	.string	"hr"
	.section	.text._ZN5cgicc5hrTag7getNameEv,"axG",@progbits,_ZN5cgicc5hrTag7getNameEv,comdat
	.weak	_ZN5cgicc5hrTag7getNameEv
	.type	_ZN5cgicc5hrTag7getNameEv, @function
_ZN5cgicc5hrTag7getNameEv:
.LFB2464:
	.cfi_startproc
	endbr64	
# BLOCK 2 seq:0
# PRED: ENTRY (FALLTHRU)
	pushq	%rbp	#
	.cfi_def_cfa_offset 16
	.cfi_offset 6, -16
	movq	%rsp, %rbp	#,
	.cfi_def_cfa_register 6
# ../cgicc/HTMLClasses.h:179:   ATOMIC_ELEMENT  (hr,         "hr");         // horizontal rule
	leaq	.LC7(%rip), %rax	#, _1
	popq	%rbp	#
	.cfi_def_cfa 7, 8
# SUCC: EXIT [always] 
	ret	
	.cfi_endproc
.LFE2464:
	.size	_ZN5cgicc5hrTag7getNameEv, .-_ZN5cgicc5hrTag7getNameEv
	.section	.rodata
.LC8:
	.string	"8.8.8.8"
.LC9:
	.string	"-w5"
.LC10:
	.string	"-c5"
.LC11:
	.string	"ping"
	.text
	.globl	_Z4Pingv
	.type	_Z4Pingv, @function
_Z4Pingv:
.LFB2486:
	.cfi_startproc
	endbr64	
# BLOCK 2 seq:0
# PRED: ENTRY (FALLTHRU)
	pushq	%rbp	#
	.cfi_def_cfa_offset 16
	.cfi_offset 6, -16
	movq	%rsp, %rbp	#,
	.cfi_def_cfa_register 6
# cgi.cpp:19:   execlp("ping", "-c5", "-w5", "8.8.8.8", NULL);
	movl	$0, %r8d	#,
	leaq	.LC8(%rip), %rax	#, tmp82
	movq	%rax, %rcx	# tmp82,
	leaq	.LC9(%rip), %rax	#, tmp83
	movq	%rax, %rdx	# tmp83,
	leaq	.LC10(%rip), %rax	#, tmp84
	movq	%rax, %rsi	# tmp84,
	leaq	.LC11(%rip), %rax	#, tmp85
	movq	%rax, %rdi	# tmp85,
	movl	$0, %eax	#,
	call	execlp@PLT	#
# cgi.cpp:20: }
	nop	
	popq	%rbp	#
	.cfi_def_cfa 7, 8
# SUCC: EXIT [always] 
	ret	
	.cfi_endproc
.LFE2486:
	.size	_Z4Pingv, .-_Z4Pingv
	.section	.rodata
.LC12:
	.string	"1"
.LC13:
	.string	"loggedin"
.LC14:
	.string	"Setting"
.LC15:
	.string	"C0mf0rt Router -- Setting"
	.align 8
.LC16:
	.string	"<p>TODO: implement settings</p>"
.LC17:
	.string	"half"
.LC18:
	.string	"class"
.LC19:
	.string	"center"
.LC20:
	.string	"align"
.LC21:
	.string	"smaller"
.LC22:
	.string	"C0mf0rt Router"
	.text
	.globl	_Z15ShowSettingPageRKN5cgicc5CgiccE
	.type	_Z15ShowSettingPageRKN5cgicc5CgiccE, @function
_Z15ShowSettingPageRKN5cgicc5CgiccE:
.LFB2487:
	.cfi_startproc
	.cfi_personality 0x9b,DW.ref.__gxx_personality_v0
	.cfi_lsda 0x1b,.LLSDA2487
	endbr64	
# BLOCK 2 seq:0
# PRED: ENTRY (FALLTHRU)
	pushq	%rbp	#
	.cfi_def_cfa_offset 16
	.cfi_offset 6, -16
	movq	%rsp, %rbp	#,
	.cfi_def_cfa_register 6
	pushq	%rbx	#
	subq	$408, %rsp	#,
	.cfi_offset 3, -24
	movq	%rdi, -408(%rbp)	# cgi, cgi
# cgi.cpp:22: void ShowSettingPage(const Cgicc& cgi) {
	movq	%fs:40, %rax	# MEM[(<address-space-1> long unsigned int *)40B], tmp366
	movq	%rax, -24(%rbp)	# tmp366, D.70225
	xorl	%eax, %eax	# tmp366
# cgi.cpp:23:   cout << HTTPHTMLHeader().setCookie(HTTPCookie("loggedin", "1"));
	leaq	-272(%rbp), %rax	#, tmp120
	movq	%rax, %rdi	# tmp120,
.LEHB0:
	call	_ZN5cgicc14HTTPHTMLHeaderC1Ev@PLT	#
.LEHE0:
# cgi.cpp:23:   cout << HTTPHTMLHeader().setCookie(HTTPCookie("loggedin", "1"));
	leaq	-384(%rbp), %rax	#, tmp121
	movq	%rax, %rdi	# tmp121,
	call	_ZNSaIcEC1Ev@PLT	#
	leaq	-384(%rbp), %rdx	#, tmp122
	leaq	-304(%rbp), %rax	#, tmp123
	leaq	.LC12(%rip), %rcx	#, tmp124
	movq	%rcx, %rsi	# tmp124,
	movq	%rax, %rdi	# tmp123,
.LEHB1:
# SUCC: 55 (ABNORMAL,ABNORMAL_CALL,EH) 3 (FALLTHRU)
	call	_ZNSt7__cxx1112basic_stringIcSt11char_traitsIcESaIcEEC1IS3_EEPKcRKS3_	#
.LEHE1:
# BLOCK 3 seq:1
# PRED: 2 (FALLTHRU)
# cgi.cpp:23:   cout << HTTPHTMLHeader().setCookie(HTTPCookie("loggedin", "1"));
	leaq	-393(%rbp), %rax	#, tmp125
	movq	%rax, %rdi	# tmp125,
	call	_ZNSaIcEC1Ev@PLT	#
	leaq	-393(%rbp), %rdx	#, tmp126
	leaq	-336(%rbp), %rax	#, tmp127
	leaq	.LC13(%rip), %rcx	#, tmp128
	movq	%rcx, %rsi	# tmp128,
	movq	%rax, %rdi	# tmp127,
.LEHB2:
# SUCC: 53 (ABNORMAL,ABNORMAL_CALL,EH) 4 (FALLTHRU)
	call	_ZNSt7__cxx1112basic_stringIcSt11char_traitsIcESaIcEEC1IS3_EEPKcRKS3_	#
.LEHE2:
# BLOCK 4 seq:2
# PRED: 3 (FALLTHRU)
# cgi.cpp:23:   cout << HTTPHTMLHeader().setCookie(HTTPCookie("loggedin", "1"));
	leaq	-304(%rbp), %rdx	#, tmp129
	leaq	-336(%rbp), %rcx	#, tmp130
	leaq	-208(%rbp), %rax	#, tmp131
	movq	%rcx, %rsi	# tmp130,
	movq	%rax, %rdi	# tmp131,
.LEHB3:
# SUCC: 51 (ABNORMAL,ABNORMAL_CALL,EH) 5 (FALLTHRU)
	call	_ZN5cgicc10HTTPCookieC1ERKNSt7__cxx1112basic_stringIcSt11char_traitsIcESaIcEEES8_@PLT	#
.LEHE3:
# BLOCK 5 seq:3
# PRED: 4 (FALLTHRU)
# cgi.cpp:23:   cout << HTTPHTMLHeader().setCookie(HTTPCookie("loggedin", "1"));
	leaq	-208(%rbp), %rdx	#, tmp132
	leaq	-272(%rbp), %rax	#, tmp133
	movq	%rdx, %rsi	# tmp132,
	movq	%rax, %rdi	# tmp133,
.LEHB4:
# SUCC: 50 (ABNORMAL,ABNORMAL_CALL,EH) 6 (FALLTHRU)
	call	_ZN5cgicc10HTTPHeader9setCookieERKNS_10HTTPCookieE@PLT	#
# BLOCK 6 seq:4
# PRED: 5 (FALLTHRU)
# cgi.cpp:23:   cout << HTTPHTMLHeader().setCookie(HTTPCookie("loggedin", "1"));
	movq	%rax, %rsi	# _2,
	leaq	_ZSt4cout(%rip), %rax	#, tmp134
	movq	%rax, %rdi	# tmp134,
# SUCC: 50 (ABNORMAL,ABNORMAL_CALL,EH) 7 (FALLTHRU)
	call	_ZN5cgicclsERSoRKNS_11MStreamableE@PLT	#
.LEHE4:
# BLOCK 7 seq:5
# PRED: 6 (FALLTHRU)
# cgi.cpp:23:   cout << HTTPHTMLHeader().setCookie(HTTPCookie("loggedin", "1"));
	leaq	-208(%rbp), %rax	#, tmp135
	movq	%rax, %rdi	# tmp135,
	call	_ZN5cgicc10HTTPCookieD1Ev@PLT	#
	leaq	-336(%rbp), %rax	#, tmp136
	movq	%rax, %rdi	# tmp136,
	call	_ZNSt7__cxx1112basic_stringIcSt11char_traitsIcESaIcEED1Ev@PLT	#
	leaq	-393(%rbp), %rax	#, tmp137
	movq	%rax, %rdi	# tmp137,
	call	_ZNSaIcED1Ev@PLT	#
	leaq	-304(%rbp), %rax	#, tmp138
	movq	%rax, %rdi	# tmp138,
	call	_ZNSt7__cxx1112basic_stringIcSt11char_traitsIcESaIcEED1Ev@PLT	#
	leaq	-384(%rbp), %rax	#, tmp139
	movq	%rax, %rdi	# tmp139,
	call	_ZNSaIcED1Ev@PLT	#
# cgi.cpp:23:   cout << HTTPHTMLHeader().setCookie(HTTPCookie("loggedin", "1"));
	leaq	-272(%rbp), %rax	#, tmp140
	movq	%rax, %rdi	# tmp140,
	call	_ZN5cgicc14HTTPHTMLHeaderD1Ev@PLT	#
# cgi.cpp:24:   cout << HTMLDoctype(HTMLDoctype::eStrict) << endl;
	leaq	-384(%rbp), %rax	#, tmp141
	movl	$0, %esi	#,
	movq	%rax, %rdi	# tmp141,
.LEHB5:
	call	_ZN5cgicc11HTMLDoctypeC1ENS0_13EDocumentTypeE@PLT	#
.LEHE5:
# cgi.cpp:24:   cout << HTMLDoctype(HTMLDoctype::eStrict) << endl;
	leaq	-384(%rbp), %rax	#, tmp142
	movq	%rax, %rsi	# tmp142,
	leaq	_ZSt4cout(%rip), %rax	#, tmp143
	movq	%rax, %rdi	# tmp143,
.LEHB6:
# SUCC: 57 (ABNORMAL,ABNORMAL_CALL,EH) 8 (FALLTHRU)
	call	_ZN5cgicclsERSoRKNS_11MStreamableE@PLT	#
# BLOCK 8 seq:6
# PRED: 7 (FALLTHRU)
# cgi.cpp:24:   cout << HTMLDoctype(HTMLDoctype::eStrict) << endl;
	movq	_ZSt4endlIcSt11char_traitsIcEERSt13basic_ostreamIT_T0_ES6_@GOTPCREL(%rip), %rdx	#, tmp145
	movq	%rdx, %rsi	# tmp144,
	movq	%rax, %rdi	# _3,
# SUCC: 57 (ABNORMAL,ABNORMAL_CALL,EH) 9 (FALLTHRU)
	call	_ZNSolsEPFRSoS_E@PLT	#
.LEHE6:
# BLOCK 9 seq:7
# PRED: 8 (FALLTHRU)
# cgi.cpp:24:   cout << HTMLDoctype(HTMLDoctype::eStrict) << endl;
	leaq	-384(%rbp), %rax	#, tmp146
	movq	%rax, %rdi	# tmp146,
	call	_ZN5cgicc11HTMLDoctypeD1Ev@PLT	#
# cgi.cpp:25:   cout << html() << endl;
	leaq	-208(%rbp), %rax	#, tmp147
	movq	%rax, %rdi	# tmp147,
.LEHB7:
	call	_ZN5cgicc18HTMLBooleanElementINS_7htmlTagEEC1Ev	#
.LEHE7:
# cgi.cpp:25:   cout << html() << endl;
	leaq	-208(%rbp), %rax	#, tmp148
	movq	%rax, %rsi	# tmp148,
	leaq	_ZSt4cout(%rip), %rax	#, tmp149
	movq	%rax, %rdi	# tmp149,
.LEHB8:
# SUCC: 58 (ABNORMAL,ABNORMAL_CALL,EH) 10 (FALLTHRU)
	call	_ZN5cgicclsERSoRKNS_11MStreamableE@PLT	#
# BLOCK 10 seq:8
# PRED: 9 (FALLTHRU)
# cgi.cpp:25:   cout << html() << endl;
	movq	_ZSt4endlIcSt11char_traitsIcEERSt13basic_ostreamIT_T0_ES6_@GOTPCREL(%rip), %rdx	#, tmp151
	movq	%rdx, %rsi	# tmp150,
	movq	%rax, %rdi	# _4,
# SUCC: 58 (ABNORMAL,ABNORMAL_CALL,EH) 11 (FALLTHRU)
	call	_ZNSolsEPFRSoS_E@PLT	#
.LEHE8:
# BLOCK 11 seq:9
# PRED: 10 (FALLTHRU)
# cgi.cpp:25:   cout << html() << endl;
	leaq	-208(%rbp), %rax	#, tmp152
	movq	%rax, %rdi	# tmp152,
	call	_ZN5cgicc18HTMLBooleanElementINS_7htmlTagEED1Ev	#
# cgi.cpp:27:   cout << head() << endl;
	leaq	-208(%rbp), %rax	#, tmp153
	movq	%rax, %rdi	# tmp153,
.LEHB9:
	call	_ZN5cgicc18HTMLBooleanElementINS_7headTagEEC1Ev	#
.LEHE9:
# cgi.cpp:27:   cout << head() << endl;
	leaq	-208(%rbp), %rax	#, tmp154
	movq	%rax, %rsi	# tmp154,
	leaq	_ZSt4cout(%rip), %rax	#, tmp155
	movq	%rax, %rdi	# tmp155,
.LEHB10:
# SUCC: 59 (ABNORMAL,ABNORMAL_CALL,EH) 12 (FALLTHRU)
	call	_ZN5cgicclsERSoRKNS_11MStreamableE@PLT	#
# BLOCK 12 seq:10
# PRED: 11 (FALLTHRU)
# cgi.cpp:27:   cout << head() << endl;
	movq	_ZSt4endlIcSt11char_traitsIcEERSt13basic_ostreamIT_T0_ES6_@GOTPCREL(%rip), %rdx	#, tmp157
	movq	%rdx, %rsi	# tmp156,
	movq	%rax, %rdi	# _5,
# SUCC: 59 (ABNORMAL,ABNORMAL_CALL,EH) 13 (FALLTHRU)
	call	_ZNSolsEPFRSoS_E@PLT	#
.LEHE10:
# BLOCK 13 seq:11
# PRED: 12 (FALLTHRU)
# cgi.cpp:27:   cout << head() << endl;
	leaq	-208(%rbp), %rax	#, tmp158
	movq	%rax, %rdi	# tmp158,
	call	_ZN5cgicc18HTMLBooleanElementINS_7headTagEED1Ev	#
# cgi.cpp:28:   cout << title() << "Setting" << title() << endl;
	leaq	-272(%rbp), %rax	#, tmp159
	movq	%rax, %rdi	# tmp159,
.LEHB11:
	call	_ZN5cgicc18HTMLBooleanElementINS_8titleTagEEC1Ev	#
.LEHE11:
# cgi.cpp:28:   cout << title() << "Setting" << title() << endl;
	leaq	-272(%rbp), %rax	#, tmp160
	movq	%rax, %rsi	# tmp160,
	leaq	_ZSt4cout(%rip), %rax	#, tmp161
	movq	%rax, %rdi	# tmp161,
.LEHB12:
# SUCC: 61 (ABNORMAL,ABNORMAL_CALL,EH) 14 (FALLTHRU)
	call	_ZN5cgicclsERSoRKNS_11MStreamableE@PLT	#
# BLOCK 14 seq:12
# PRED: 13 (FALLTHRU)
	movq	%rax, %rdx	#, _6
# cgi.cpp:28:   cout << title() << "Setting" << title() << endl;
	leaq	.LC14(%rip), %rax	#, tmp162
	movq	%rax, %rsi	# tmp162,
	movq	%rdx, %rdi	# _6,
# SUCC: 61 (ABNORMAL,ABNORMAL_CALL,EH) 15 (FALLTHRU)
	call	_ZStlsISt11char_traitsIcEERSt13basic_ostreamIcT_ES5_PKc@PLT	#
# BLOCK 15 seq:13
# PRED: 14 (FALLTHRU)
# cgi.cpp:28:   cout << title() << "Setting" << title() << endl;
	movq	%rax, %rbx	#, _7
# cgi.cpp:28:   cout << title() << "Setting" << title() << endl;
	leaq	-208(%rbp), %rax	#, tmp163
	movq	%rax, %rdi	# tmp163,
# SUCC: 61 (ABNORMAL,ABNORMAL_CALL,EH) 16 (FALLTHRU)
	call	_ZN5cgicc18HTMLBooleanElementINS_8titleTagEEC1Ev	#
.LEHE12:
# BLOCK 16 seq:14
# PRED: 15 (FALLTHRU)
# cgi.cpp:28:   cout << title() << "Setting" << title() << endl;
	leaq	-208(%rbp), %rax	#, tmp164
	movq	%rax, %rsi	# tmp164,
	movq	%rbx, %rdi	# _7,
.LEHB13:
# SUCC: 60 (ABNORMAL,ABNORMAL_CALL,EH) 17 (FALLTHRU)
	call	_ZN5cgicclsERSoRKNS_11MStreamableE@PLT	#
# BLOCK 17 seq:15
# PRED: 16 (FALLTHRU)
# cgi.cpp:28:   cout << title() << "Setting" << title() << endl;
	movq	_ZSt4endlIcSt11char_traitsIcEERSt13basic_ostreamIT_T0_ES6_@GOTPCREL(%rip), %rdx	#, tmp166
	movq	%rdx, %rsi	# tmp165,
	movq	%rax, %rdi	# _8,
# SUCC: 60 (ABNORMAL,ABNORMAL_CALL,EH) 18 (FALLTHRU)
	call	_ZNSolsEPFRSoS_E@PLT	#
.LEHE13:
# BLOCK 18 seq:16
# PRED: 17 (FALLTHRU)
# cgi.cpp:28:   cout << title() << "Setting" << title() << endl;
	leaq	-208(%rbp), %rax	#, tmp167
	movq	%rax, %rdi	# tmp167,
	call	_ZN5cgicc18HTMLBooleanElementINS_8titleTagEED1Ev	#
# cgi.cpp:28:   cout << title() << "Setting" << title() << endl;
	leaq	-272(%rbp), %rax	#, tmp168
	movq	%rax, %rdi	# tmp168,
	call	_ZN5cgicc18HTMLBooleanElementINS_8titleTagEED1Ev	#
# cgi.cpp:29:   cout << head() << endl;
	leaq	-208(%rbp), %rax	#, tmp169
	movq	%rax, %rdi	# tmp169,
.LEHB14:
	call	_ZN5cgicc18HTMLBooleanElementINS_7headTagEEC1Ev	#
.LEHE14:
# cgi.cpp:29:   cout << head() << endl;
	leaq	-208(%rbp), %rax	#, tmp170
	movq	%rax, %rsi	# tmp170,
	leaq	_ZSt4cout(%rip), %rax	#, tmp171
	movq	%rax, %rdi	# tmp171,
.LEHB15:
# SUCC: 63 (ABNORMAL,ABNORMAL_CALL,EH) 19 (FALLTHRU)
	call	_ZN5cgicclsERSoRKNS_11MStreamableE@PLT	#
# BLOCK 19 seq:17
# PRED: 18 (FALLTHRU)
# cgi.cpp:29:   cout << head() << endl;
	movq	_ZSt4endlIcSt11char_traitsIcEERSt13basic_ostreamIT_T0_ES6_@GOTPCREL(%rip), %rdx	#, tmp173
	movq	%rdx, %rsi	# tmp172,
	movq	%rax, %rdi	# _9,
# SUCC: 63 (ABNORMAL,ABNORMAL_CALL,EH) 20 (FALLTHRU)
	call	_ZNSolsEPFRSoS_E@PLT	#
.LEHE15:
# BLOCK 20 seq:18
# PRED: 19 (FALLTHRU)
# cgi.cpp:29:   cout << head() << endl;
	leaq	-208(%rbp), %rax	#, tmp174
	movq	%rax, %rdi	# tmp174,
	call	_ZN5cgicc18HTMLBooleanElementINS_7headTagEED1Ev	#
# cgi.cpp:31:   cout << body() << endl;
	leaq	-208(%rbp), %rax	#, tmp175
	movq	%rax, %rdi	# tmp175,
.LEHB16:
	call	_ZN5cgicc18HTMLBooleanElementINS_7bodyTagEEC1Ev	#
.LEHE16:
# cgi.cpp:31:   cout << body() << endl;
	leaq	-208(%rbp), %rax	#, tmp176
	movq	%rax, %rsi	# tmp176,
	leaq	_ZSt4cout(%rip), %rax	#, tmp177
	movq	%rax, %rdi	# tmp177,
.LEHB17:
# SUCC: 64 (ABNORMAL,ABNORMAL_CALL,EH) 21 (FALLTHRU)
	call	_ZN5cgicclsERSoRKNS_11MStreamableE@PLT	#
# BLOCK 21 seq:19
# PRED: 20 (FALLTHRU)
# cgi.cpp:31:   cout << body() << endl;
	movq	_ZSt4endlIcSt11char_traitsIcEERSt13basic_ostreamIT_T0_ES6_@GOTPCREL(%rip), %rdx	#, tmp179
	movq	%rdx, %rsi	# tmp178,
	movq	%rax, %rdi	# _10,
# SUCC: 64 (ABNORMAL,ABNORMAL_CALL,EH) 22 (FALLTHRU)
	call	_ZNSolsEPFRSoS_E@PLT	#
.LEHE17:
# BLOCK 22 seq:20
# PRED: 21 (FALLTHRU)
# cgi.cpp:31:   cout << body() << endl;
	leaq	-208(%rbp), %rax	#, tmp180
	movq	%rax, %rdi	# tmp180,
	call	_ZN5cgicc18HTMLBooleanElementINS_7bodyTagEED1Ev	#
# cgi.cpp:32:   cout << h1() << "C0mf0rt Router -- Setting" << h1() << endl;
	leaq	-272(%rbp), %rax	#, tmp181
	movq	%rax, %rdi	# tmp181,
.LEHB18:
	call	_ZN5cgicc18HTMLBooleanElementINS_5h1TagEEC1Ev	#
.LEHE18:
# cgi.cpp:32:   cout << h1() << "C0mf0rt Router -- Setting" << h1() << endl;
	leaq	-272(%rbp), %rax	#, tmp182
	movq	%rax, %rsi	# tmp182,
	leaq	_ZSt4cout(%rip), %rax	#, tmp183
	movq	%rax, %rdi	# tmp183,
.LEHB19:
# SUCC: 66 (ABNORMAL,ABNORMAL_CALL,EH) 23 (FALLTHRU)
	call	_ZN5cgicclsERSoRKNS_11MStreamableE@PLT	#
# BLOCK 23 seq:21
# PRED: 22 (FALLTHRU)
	movq	%rax, %rdx	#, _11
# cgi.cpp:32:   cout << h1() << "C0mf0rt Router -- Setting" << h1() << endl;
	leaq	.LC15(%rip), %rax	#, tmp184
	movq	%rax, %rsi	# tmp184,
	movq	%rdx, %rdi	# _11,
# SUCC: 66 (ABNORMAL,ABNORMAL_CALL,EH) 24 (FALLTHRU)
	call	_ZStlsISt11char_traitsIcEERSt13basic_ostreamIcT_ES5_PKc@PLT	#
# BLOCK 24 seq:22
# PRED: 23 (FALLTHRU)
# cgi.cpp:32:   cout << h1() << "C0mf0rt Router -- Setting" << h1() << endl;
	movq	%rax, %rbx	#, _12
# cgi.cpp:32:   cout << h1() << "C0mf0rt Router -- Setting" << h1() << endl;
	leaq	-208(%rbp), %rax	#, tmp185
	movq	%rax, %rdi	# tmp185,
# SUCC: 66 (ABNORMAL,ABNORMAL_CALL,EH) 25 (FALLTHRU)
	call	_ZN5cgicc18HTMLBooleanElementINS_5h1TagEEC1Ev	#
.LEHE19:
# BLOCK 25 seq:23
# PRED: 24 (FALLTHRU)
# cgi.cpp:32:   cout << h1() << "C0mf0rt Router -- Setting" << h1() << endl;
	leaq	-208(%rbp), %rax	#, tmp186
	movq	%rax, %rsi	# tmp186,
	movq	%rbx, %rdi	# _12,
.LEHB20:
# SUCC: 65 (ABNORMAL,ABNORMAL_CALL,EH) 26 (FALLTHRU)
	call	_ZN5cgicclsERSoRKNS_11MStreamableE@PLT	#
# BLOCK 26 seq:24
# PRED: 25 (FALLTHRU)
# cgi.cpp:32:   cout << h1() << "C0mf0rt Router -- Setting" << h1() << endl;
	movq	_ZSt4endlIcSt11char_traitsIcEERSt13basic_ostreamIT_T0_ES6_@GOTPCREL(%rip), %rdx	#, tmp188
	movq	%rdx, %rsi	# tmp187,
	movq	%rax, %rdi	# _13,
# SUCC: 65 (ABNORMAL,ABNORMAL_CALL,EH) 27 (FALLTHRU)
	call	_ZNSolsEPFRSoS_E@PLT	#
.LEHE20:
# BLOCK 27 seq:25
# PRED: 26 (FALLTHRU)
# cgi.cpp:32:   cout << h1() << "C0mf0rt Router -- Setting" << h1() << endl;
	leaq	-208(%rbp), %rax	#, tmp189
	movq	%rax, %rdi	# tmp189,
	call	_ZN5cgicc18HTMLBooleanElementINS_5h1TagEED1Ev	#
# cgi.cpp:32:   cout << h1() << "C0mf0rt Router -- Setting" << h1() << endl;
	leaq	-272(%rbp), %rax	#, tmp190
	movq	%rax, %rdi	# tmp190,
	call	_ZN5cgicc18HTMLBooleanElementINS_5h1TagEED1Ev	#
# cgi.cpp:34:   const CgiEnvironment& env = cgi.getEnvironment();
	movq	-408(%rbp), %rax	# cgi, tmp191
	movq	%rax, %rdi	# tmp191,
	call	_ZNK5cgicc5Cgicc14getEnvironmentEv@PLT	#
	movq	%rax, -392(%rbp)	# tmp192, env
# cgi.cpp:36:   cout << br() << endl;
	leaq	-208(%rbp), %rax	#, tmp193
	movq	%rax, %rdi	# tmp193,
.LEHB21:
	call	_ZN5cgicc17HTMLAtomicElementINS_5brTagEEC1Ev	#
.LEHE21:
# cgi.cpp:36:   cout << br() << endl;
	leaq	-208(%rbp), %rax	#, tmp194
	movq	%rax, %rsi	# tmp194,
	leaq	_ZSt4cout(%rip), %rax	#, tmp195
	movq	%rax, %rdi	# tmp195,
.LEHB22:
# SUCC: 68 (ABNORMAL,ABNORMAL_CALL,EH) 28 (FALLTHRU)
	call	_ZN5cgicclsERSoRKNS_11MStreamableE@PLT	#
# BLOCK 28 seq:26
# PRED: 27 (FALLTHRU)
# cgi.cpp:36:   cout << br() << endl;
	movq	_ZSt4endlIcSt11char_traitsIcEERSt13basic_ostreamIT_T0_ES6_@GOTPCREL(%rip), %rdx	#, tmp197
	movq	%rdx, %rsi	# tmp196,
	movq	%rax, %rdi	# _14,
# SUCC: 68 (ABNORMAL,ABNORMAL_CALL,EH) 29 (FALLTHRU)
	call	_ZNSolsEPFRSoS_E@PLT	#
.LEHE22:
# BLOCK 29 seq:27
# PRED: 28 (FALLTHRU)
# cgi.cpp:36:   cout << br() << endl;
	leaq	-208(%rbp), %rax	#, tmp198
	movq	%rax, %rdi	# tmp198,
	call	_ZN5cgicc17HTMLAtomicElementINS_5brTagEED1Ev	#
# cgi.cpp:37:   cout << "<p>TODO: implement settings</p>";
	leaq	.LC16(%rip), %rax	#, tmp199
	movq	%rax, %rsi	# tmp199,
	leaq	_ZSt4cout(%rip), %rax	#, tmp200
	movq	%rax, %rdi	# tmp200,
.LEHB23:
	call	_ZStlsISt11char_traitsIcEERSt13basic_ostreamIcT_ES5_PKc@PLT	#
# cgi.cpp:39:   cout << hr().set("class", "half") << endl;
	leaq	-208(%rbp), %rax	#, tmp201
	movq	%rax, %rdi	# tmp201,
	call	_ZN5cgicc17HTMLAtomicElementINS_5hrTagEEC1Ev	#
.LEHE23:
# cgi.cpp:39:   cout << hr().set("class", "half") << endl;
	leaq	-384(%rbp), %rax	#, tmp202
	movq	%rax, %rdi	# tmp202,
	call	_ZNSaIcEC1Ev@PLT	#
	leaq	-384(%rbp), %rdx	#, tmp203
	leaq	-272(%rbp), %rax	#, tmp204
	leaq	.LC17(%rip), %rcx	#, tmp205
	movq	%rcx, %rsi	# tmp205,
	movq	%rax, %rdi	# tmp204,
.LEHB24:
# SUCC: 72 (ABNORMAL,ABNORMAL_CALL,EH) 30 (FALLTHRU)
	call	_ZNSt7__cxx1112basic_stringIcSt11char_traitsIcESaIcEEC1IS3_EEPKcRKS3_	#
.LEHE24:
# BLOCK 30 seq:28
# PRED: 29 (FALLTHRU)
# cgi.cpp:39:   cout << hr().set("class", "half") << endl;
	leaq	-393(%rbp), %rax	#, tmp206
	movq	%rax, %rdi	# tmp206,
	call	_ZNSaIcEC1Ev@PLT	#
	leaq	-393(%rbp), %rdx	#, tmp207
	leaq	-304(%rbp), %rax	#, tmp208
	leaq	.LC18(%rip), %rcx	#, tmp209
	movq	%rcx, %rsi	# tmp209,
	movq	%rax, %rdi	# tmp208,
.LEHB25:
# SUCC: 70 (ABNORMAL,ABNORMAL_CALL,EH) 31 (FALLTHRU)
	call	_ZNSt7__cxx1112basic_stringIcSt11char_traitsIcESaIcEEC1IS3_EEPKcRKS3_	#
.LEHE25:
# BLOCK 31 seq:29
# PRED: 30 (FALLTHRU)
# cgi.cpp:39:   cout << hr().set("class", "half") << endl;
	leaq	-272(%rbp), %rdx	#, tmp210
	leaq	-304(%rbp), %rcx	#, tmp211
	leaq	-208(%rbp), %rax	#, tmp212
	movq	%rcx, %rsi	# tmp211,
	movq	%rax, %rdi	# tmp212,
.LEHB26:
# SUCC: 69 (ABNORMAL,ABNORMAL_CALL,EH) 32 (FALLTHRU)
	call	_ZN5cgicc11HTMLElement3setERKNSt7__cxx1112basic_stringIcSt11char_traitsIcESaIcEEES8_@PLT	#
# BLOCK 32 seq:30
# PRED: 31 (FALLTHRU)
# cgi.cpp:39:   cout << hr().set("class", "half") << endl;
	movq	%rax, %rsi	# _16,
	leaq	_ZSt4cout(%rip), %rax	#, tmp213
	movq	%rax, %rdi	# tmp213,
# SUCC: 69 (ABNORMAL,ABNORMAL_CALL,EH) 33 (FALLTHRU)
	call	_ZN5cgicclsERSoRKNS_11MStreamableE@PLT	#
# BLOCK 33 seq:31
# PRED: 32 (FALLTHRU)
# cgi.cpp:39:   cout << hr().set("class", "half") << endl;
	movq	_ZSt4endlIcSt11char_traitsIcEERSt13basic_ostreamIT_T0_ES6_@GOTPCREL(%rip), %rdx	#, tmp215
	movq	%rdx, %rsi	# tmp214,
	movq	%rax, %rdi	# _17,
# SUCC: 69 (ABNORMAL,ABNORMAL_CALL,EH) 34 (FALLTHRU)
	call	_ZNSolsEPFRSoS_E@PLT	#
.LEHE26:
# BLOCK 34 seq:32
# PRED: 33 (FALLTHRU)
# cgi.cpp:39:   cout << hr().set("class", "half") << endl;
	leaq	-304(%rbp), %rax	#, tmp216
	movq	%rax, %rdi	# tmp216,
	call	_ZNSt7__cxx1112basic_stringIcSt11char_traitsIcESaIcEED1Ev@PLT	#
	leaq	-393(%rbp), %rax	#, tmp217
	movq	%rax, %rdi	# tmp217,
	call	_ZNSaIcED1Ev@PLT	#
	leaq	-272(%rbp), %rax	#, tmp218
	movq	%rax, %rdi	# tmp218,
	call	_ZNSt7__cxx1112basic_stringIcSt11char_traitsIcESaIcEED1Ev@PLT	#
	leaq	-384(%rbp), %rax	#, tmp219
	movq	%rax, %rdi	# tmp219,
	call	_ZNSaIcED1Ev@PLT	#
# cgi.cpp:39:   cout << hr().set("class", "half") << endl;
	leaq	-208(%rbp), %rax	#, tmp220
	movq	%rax, %rdi	# tmp220,
	call	_ZN5cgicc17HTMLAtomicElementINS_5hrTagEED1Ev	#
# cgi.cpp:40:   cout << cgicc::div().set("align", "center").set("class", "smaller") << endl;
	leaq	-208(%rbp), %rax	#, tmp221
	movq	%rax, %rdi	# tmp221,
.LEHB27:
	call	_ZN5cgicc18HTMLBooleanElementINS_6divTagEEC1Ev	#
.LEHE27:
# cgi.cpp:40:   cout << cgicc::div().set("align", "center").set("class", "smaller") << endl;
	leaq	-394(%rbp), %rax	#, tmp222
	movq	%rax, %rdi	# tmp222,
	call	_ZNSaIcEC1Ev@PLT	#
	leaq	-394(%rbp), %rdx	#, tmp223
	leaq	-336(%rbp), %rax	#, tmp224
	leaq	.LC19(%rip), %rcx	#, tmp225
	movq	%rcx, %rsi	# tmp225,
	movq	%rax, %rdi	# tmp224,
.LEHB28:
# SUCC: 83 (ABNORMAL,ABNORMAL_CALL,EH) 35 (FALLTHRU)
	call	_ZNSt7__cxx1112basic_stringIcSt11char_traitsIcESaIcEEC1IS3_EEPKcRKS3_	#
.LEHE28:
# BLOCK 35 seq:33
# PRED: 34 (FALLTHRU)
# cgi.cpp:40:   cout << cgicc::div().set("align", "center").set("class", "smaller") << endl;
	leaq	-395(%rbp), %rax	#, tmp226
	movq	%rax, %rdi	# tmp226,
	call	_ZNSaIcEC1Ev@PLT	#
	leaq	-395(%rbp), %rdx	#, tmp227
	leaq	-368(%rbp), %rax	#, tmp228
	leaq	.LC20(%rip), %rcx	#, tmp229
	movq	%rcx, %rsi	# tmp229,
	movq	%rax, %rdi	# tmp228,
.LEHB29:
# SUCC: 81 (ABNORMAL,ABNORMAL_CALL,EH) 36 (FALLTHRU)
	call	_ZNSt7__cxx1112basic_stringIcSt11char_traitsIcESaIcEEC1IS3_EEPKcRKS3_	#
.LEHE29:
# BLOCK 36 seq:34
# PRED: 35 (FALLTHRU)
# cgi.cpp:40:   cout << cgicc::div().set("align", "center").set("class", "smaller") << endl;
	leaq	-336(%rbp), %rdx	#, tmp230
	leaq	-368(%rbp), %rcx	#, tmp231
	leaq	-208(%rbp), %rax	#, tmp232
	movq	%rcx, %rsi	# tmp231,
	movq	%rax, %rdi	# tmp232,
.LEHB30:
# SUCC: 79 (ABNORMAL,ABNORMAL_CALL,EH) 37 (FALLTHRU)
	call	_ZN5cgicc11HTMLElement3setERKNSt7__cxx1112basic_stringIcSt11char_traitsIcESaIcEEES8_@PLT	#
.LEHE30:
# BLOCK 37 seq:35
# PRED: 36 (FALLTHRU)
	movq	%rax, %rbx	#, _18
# cgi.cpp:40:   cout << cgicc::div().set("align", "center").set("class", "smaller") << endl;
	leaq	-384(%rbp), %rax	#, tmp233
	movq	%rax, %rdi	# tmp233,
	call	_ZNSaIcEC1Ev@PLT	#
	leaq	-384(%rbp), %rdx	#, tmp234
	leaq	-272(%rbp), %rax	#, tmp235
	leaq	.LC21(%rip), %rcx	#, tmp236
	movq	%rcx, %rsi	# tmp236,
	movq	%rax, %rdi	# tmp235,
.LEHB31:
# SUCC: 77 (ABNORMAL,ABNORMAL_CALL,EH) 38 (FALLTHRU)
	call	_ZNSt7__cxx1112basic_stringIcSt11char_traitsIcESaIcEEC1IS3_EEPKcRKS3_	#
.LEHE31:
# BLOCK 38 seq:36
# PRED: 37 (FALLTHRU)
# cgi.cpp:40:   cout << cgicc::div().set("align", "center").set("class", "smaller") << endl;
	leaq	-393(%rbp), %rax	#, tmp237
	movq	%rax, %rdi	# tmp237,
	call	_ZNSaIcEC1Ev@PLT	#
	leaq	-393(%rbp), %rdx	#, tmp238
	leaq	-304(%rbp), %rax	#, tmp239
	leaq	.LC18(%rip), %rcx	#, tmp240
	movq	%rcx, %rsi	# tmp240,
	movq	%rax, %rdi	# tmp239,
.LEHB32:
# SUCC: 75 (ABNORMAL,ABNORMAL_CALL,EH) 39 (FALLTHRU)
	call	_ZNSt7__cxx1112basic_stringIcSt11char_traitsIcESaIcEEC1IS3_EEPKcRKS3_	#
.LEHE32:
# BLOCK 39 seq:37
# PRED: 38 (FALLTHRU)
# cgi.cpp:40:   cout << cgicc::div().set("align", "center").set("class", "smaller") << endl;
	leaq	-272(%rbp), %rdx	#, tmp241
	leaq	-304(%rbp), %rax	#, tmp242
	movq	%rax, %rsi	# tmp242,
	movq	%rbx, %rdi	# _18,
.LEHB33:
# SUCC: 74 (ABNORMAL,ABNORMAL_CALL,EH) 40 (FALLTHRU)
	call	_ZN5cgicc11HTMLElement3setERKNSt7__cxx1112basic_stringIcSt11char_traitsIcESaIcEEES8_@PLT	#
# BLOCK 40 seq:38
# PRED: 39 (FALLTHRU)
# cgi.cpp:40:   cout << cgicc::div().set("align", "center").set("class", "smaller") << endl;
	movq	%rax, %rsi	# _20,
	leaq	_ZSt4cout(%rip), %rax	#, tmp243
	movq	%rax, %rdi	# tmp243,
# SUCC: 74 (ABNORMAL,ABNORMAL_CALL,EH) 41 (FALLTHRU)
	call	_ZN5cgicclsERSoRKNS_11MStreamableE@PLT	#
# BLOCK 41 seq:39
# PRED: 40 (FALLTHRU)
# cgi.cpp:40:   cout << cgicc::div().set("align", "center").set("class", "smaller") << endl;
	movq	_ZSt4endlIcSt11char_traitsIcEERSt13basic_ostreamIT_T0_ES6_@GOTPCREL(%rip), %rdx	#, tmp245
	movq	%rdx, %rsi	# tmp244,
	movq	%rax, %rdi	# _21,
# SUCC: 74 (ABNORMAL,ABNORMAL_CALL,EH) 42 (FALLTHRU)
	call	_ZNSolsEPFRSoS_E@PLT	#
.LEHE33:
# BLOCK 42 seq:40
# PRED: 41 (FALLTHRU)
# cgi.cpp:40:   cout << cgicc::div().set("align", "center").set("class", "smaller") << endl;
	leaq	-304(%rbp), %rax	#, tmp246
	movq	%rax, %rdi	# tmp246,
	call	_ZNSt7__cxx1112basic_stringIcSt11char_traitsIcESaIcEED1Ev@PLT	#
	leaq	-393(%rbp), %rax	#, tmp247
	movq	%rax, %rdi	# tmp247,
	call	_ZNSaIcED1Ev@PLT	#
	leaq	-272(%rbp), %rax	#, tmp248
	movq	%rax, %rdi	# tmp248,
	call	_ZNSt7__cxx1112basic_stringIcSt11char_traitsIcESaIcEED1Ev@PLT	#
	leaq	-384(%rbp), %rax	#, tmp249
	movq	%rax, %rdi	# tmp249,
	call	_ZNSaIcED1Ev@PLT	#
# cgi.cpp:40:   cout << cgicc::div().set("align", "center").set("class", "smaller") << endl;
	leaq	-368(%rbp), %rax	#, tmp250
	movq	%rax, %rdi	# tmp250,
	call	_ZNSt7__cxx1112basic_stringIcSt11char_traitsIcESaIcEED1Ev@PLT	#
	leaq	-395(%rbp), %rax	#, tmp251
	movq	%rax, %rdi	# tmp251,
	call	_ZNSaIcED1Ev@PLT	#
	leaq	-336(%rbp), %rax	#, tmp252
	movq	%rax, %rdi	# tmp252,
	call	_ZNSt7__cxx1112basic_stringIcSt11char_traitsIcESaIcEED1Ev@PLT	#
	leaq	-394(%rbp), %rax	#, tmp253
	movq	%rax, %rdi	# tmp253,
	call	_ZNSaIcED1Ev@PLT	#
# cgi.cpp:40:   cout << cgicc::div().set("align", "center").set("class", "smaller") << endl;
	leaq	-208(%rbp), %rax	#, tmp254
	movq	%rax, %rdi	# tmp254,
	call	_ZN5cgicc18HTMLBooleanElementINS_6divTagEED1Ev	#
# cgi.cpp:41:   cout << "C0mf0rt Router" << endl;
	leaq	.LC22(%rip), %rax	#, tmp255
	movq	%rax, %rsi	# tmp255,
	leaq	_ZSt4cout(%rip), %rax	#, tmp256
	movq	%rax, %rdi	# tmp256,
.LEHB34:
	call	_ZStlsISt11char_traitsIcEERSt13basic_ostreamIcT_ES5_PKc@PLT	#
# cgi.cpp:41:   cout << "C0mf0rt Router" << endl;
	movq	_ZSt4endlIcSt11char_traitsIcEERSt13basic_ostreamIT_T0_ES6_@GOTPCREL(%rip), %rdx	#, tmp258
	movq	%rdx, %rsi	# tmp257,
	movq	%rax, %rdi	# _22,
	call	_ZNSolsEPFRSoS_E@PLT	#
# cgi.cpp:43:   cout << cgicc::div() << endl;
	leaq	-208(%rbp), %rax	#, tmp259
	movq	%rax, %rdi	# tmp259,
	call	_ZN5cgicc18HTMLBooleanElementINS_6divTagEEC1Ev	#
.LEHE34:
# cgi.cpp:43:   cout << cgicc::div() << endl;
	leaq	-208(%rbp), %rax	#, tmp260
	movq	%rax, %rsi	# tmp260,
	leaq	_ZSt4cout(%rip), %rax	#, tmp261
	movq	%rax, %rdi	# tmp261,
.LEHB35:
# SUCC: 85 (ABNORMAL,ABNORMAL_CALL,EH) 43 (FALLTHRU)
	call	_ZN5cgicclsERSoRKNS_11MStreamableE@PLT	#
# BLOCK 43 seq:41
# PRED: 42 (FALLTHRU)
# cgi.cpp:43:   cout << cgicc::div() << endl;
	movq	_ZSt4endlIcSt11char_traitsIcEERSt13basic_ostreamIT_T0_ES6_@GOTPCREL(%rip), %rdx	#, tmp263
	movq	%rdx, %rsi	# tmp262,
	movq	%rax, %rdi	# _23,
# SUCC: 85 (ABNORMAL,ABNORMAL_CALL,EH) 44 (FALLTHRU)
	call	_ZNSolsEPFRSoS_E@PLT	#
.LEHE35:
# BLOCK 44 seq:42
# PRED: 43 (FALLTHRU)
# cgi.cpp:43:   cout << cgicc::div() << endl;
	leaq	-208(%rbp), %rax	#, tmp264
	movq	%rax, %rdi	# tmp264,
	call	_ZN5cgicc18HTMLBooleanElementINS_6divTagEED1Ev	#
# cgi.cpp:44:   cout << body() << html() << endl;
	leaq	-272(%rbp), %rax	#, tmp265
	movq	%rax, %rdi	# tmp265,
.LEHB36:
	call	_ZN5cgicc18HTMLBooleanElementINS_7bodyTagEEC1Ev	#
.LEHE36:
# cgi.cpp:44:   cout << body() << html() << endl;
	leaq	-272(%rbp), %rax	#, tmp266
	movq	%rax, %rsi	# tmp266,
	leaq	_ZSt4cout(%rip), %rax	#, tmp267
	movq	%rax, %rdi	# tmp267,
.LEHB37:
# SUCC: 87 (ABNORMAL,ABNORMAL_CALL,EH) 45 (FALLTHRU)
	call	_ZN5cgicclsERSoRKNS_11MStreamableE@PLT	#
# BLOCK 45 seq:43
# PRED: 44 (FALLTHRU)
	movq	%rax, %rbx	#, _24
# cgi.cpp:44:   cout << body() << html() << endl;
	leaq	-208(%rbp), %rax	#, tmp268
	movq	%rax, %rdi	# tmp268,
# SUCC: 87 (ABNORMAL,ABNORMAL_CALL,EH) 46 (FALLTHRU)
	call	_ZN5cgicc18HTMLBooleanElementINS_7htmlTagEEC1Ev	#
.LEHE37:
# BLOCK 46 seq:44
# PRED: 45 (FALLTHRU)
# cgi.cpp:44:   cout << body() << html() << endl;
	leaq	-208(%rbp), %rax	#, tmp269
	movq	%rax, %rsi	# tmp269,
	movq	%rbx, %rdi	# _24,
.LEHB38:
# SUCC: 86 (ABNORMAL,ABNORMAL_CALL,EH) 47 (FALLTHRU)
	call	_ZN5cgicclsERSoRKNS_11MStreamableE@PLT	#
# BLOCK 47 seq:45
# PRED: 46 (FALLTHRU)
# cgi.cpp:44:   cout << body() << html() << endl;
	movq	_ZSt4endlIcSt11char_traitsIcEERSt13basic_ostreamIT_T0_ES6_@GOTPCREL(%rip), %rdx	#, tmp271
	movq	%rdx, %rsi	# tmp270,
	movq	%rax, %rdi	# _25,
# SUCC: 86 (ABNORMAL,ABNORMAL_CALL,EH) 48 (FALLTHRU)
	call	_ZNSolsEPFRSoS_E@PLT	#
.LEHE38:
# BLOCK 48 seq:46
# PRED: 47 (FALLTHRU)
# cgi.cpp:44:   cout << body() << html() << endl;
	leaq	-208(%rbp), %rax	#, tmp272
	movq	%rax, %rdi	# tmp272,
	call	_ZN5cgicc18HTMLBooleanElementINS_7htmlTagEED1Ev	#
# cgi.cpp:44:   cout << body() << html() << endl;
	leaq	-272(%rbp), %rax	#, tmp273
	movq	%rax, %rdi	# tmp273,
	call	_ZN5cgicc18HTMLBooleanElementINS_7bodyTagEED1Ev	#
# cgi.cpp:45: }
	nop	
	movq	-24(%rbp), %rax	# D.70225, tmp367
	subq	%fs:40, %rax	# MEM[(<address-space-1> long unsigned int *)40B], tmp367
# SUCC: 90 49 (FALLTHRU)
	je	.L49	#,
# BLOCK 49 seq:47
# PRED: 48 (FALLTHRU)
# SUCC: 89 [always] 
	jmp	.L76	#
# BLOCK 50 seq:48
# PRED: 5 (ABNORMAL,ABNORMAL_CALL,EH) 6 (ABNORMAL,ABNORMAL_CALL,EH)
.L53:
	endbr64	
# cgi.cpp:23:   cout << HTTPHTMLHeader().setCookie(HTTPCookie("loggedin", "1"));
	movq	%rax, %rbx	#, tmp276
	leaq	-208(%rbp), %rax	#, tmp274
	movq	%rax, %rdi	# tmp274,
	call	_ZN5cgicc10HTTPCookieD1Ev@PLT	#
# SUCC: 52 [always] 
	jmp	.L24	#
# BLOCK 51 seq:49
# PRED: 4 (ABNORMAL,ABNORMAL_CALL,EH)
.L52:
	endbr64	
# SUCC: 52 [always]  (FALLTHRU)
	movq	%rax, %rbx	#, tmp275
# BLOCK 52 seq:50
# PRED: 51 [always]  (FALLTHRU) 50 [always] 
.L24:
# cgi.cpp:23:   cout << HTTPHTMLHeader().setCookie(HTTPCookie("loggedin", "1"));
	leaq	-336(%rbp), %rax	#, tmp279
	movq	%rax, %rdi	# tmp279,
	call	_ZNSt7__cxx1112basic_stringIcSt11char_traitsIcESaIcEED1Ev@PLT	#
# SUCC: 54 [always] 
	jmp	.L25	#
# BLOCK 53 seq:51
# PRED: 3 (ABNORMAL,ABNORMAL_CALL,EH)
.L51:
	endbr64	
# SUCC: 54 [always]  (FALLTHRU)
# cgi.cpp:23:   cout << HTTPHTMLHeader().setCookie(HTTPCookie("loggedin", "1"));
	movq	%rax, %rbx	#, tmp280
# BLOCK 54 seq:52
# PRED: 53 [always]  (FALLTHRU) 52 [always] 
.L25:
# cgi.cpp:23:   cout << HTTPHTMLHeader().setCookie(HTTPCookie("loggedin", "1"));
	leaq	-393(%rbp), %rax	#, tmp282
	movq	%rax, %rdi	# tmp282,
	call	_ZNSaIcED1Ev@PLT	#
	leaq	-304(%rbp), %rax	#, tmp285
	movq	%rax, %rdi	# tmp285,
	call	_ZNSt7__cxx1112basic_stringIcSt11char_traitsIcESaIcEED1Ev@PLT	#
# SUCC: 56 [always] 
	jmp	.L26	#
# BLOCK 55 seq:53
# PRED: 2 (ABNORMAL,ABNORMAL_CALL,EH)
.L50:
	endbr64	
# SUCC: 56 [always]  (FALLTHRU)
# cgi.cpp:23:   cout << HTTPHTMLHeader().setCookie(HTTPCookie("loggedin", "1"));
	movq	%rax, %rbx	#, tmp286
# BLOCK 56 seq:54
# PRED: 55 [always]  (FALLTHRU) 54 [always] 
.L26:
# cgi.cpp:23:   cout << HTTPHTMLHeader().setCookie(HTTPCookie("loggedin", "1"));
	leaq	-384(%rbp), %rax	#, tmp288
	movq	%rax, %rdi	# tmp288,
	call	_ZNSaIcED1Ev@PLT	#
# cgi.cpp:23:   cout << HTTPHTMLHeader().setCookie(HTTPCookie("loggedin", "1"));
	leaq	-272(%rbp), %rax	#, tmp291
	movq	%rax, %rdi	# tmp291,
	call	_ZN5cgicc14HTTPHTMLHeaderD1Ev@PLT	#
	movq	%rbx, %rax	# tmp289, D.70211
	movq	%rax, %rdi	# D.70211,
.LEHB39:
# SUCC:
	call	_Unwind_Resume@PLT	#
# BLOCK 57 seq:55
# PRED: 7 (ABNORMAL,ABNORMAL_CALL,EH) 8 (ABNORMAL,ABNORMAL_CALL,EH)
.L54:
	endbr64	
# cgi.cpp:24:   cout << HTMLDoctype(HTMLDoctype::eStrict) << endl;
	movq	%rax, %rbx	#, tmp293
	leaq	-384(%rbp), %rax	#, tmp292
	movq	%rax, %rdi	# tmp292,
	call	_ZN5cgicc11HTMLDoctypeD1Ev@PLT	#
	movq	%rbx, %rax	# tmp293, D.70212
	movq	%rax, %rdi	# D.70212,
# SUCC:
	call	_Unwind_Resume@PLT	#
# BLOCK 58 seq:56
# PRED: 9 (ABNORMAL,ABNORMAL_CALL,EH) 10 (ABNORMAL,ABNORMAL_CALL,EH)
.L55:
	endbr64	
# cgi.cpp:25:   cout << html() << endl;
	movq	%rax, %rbx	#, tmp295
	leaq	-208(%rbp), %rax	#, tmp294
	movq	%rax, %rdi	# tmp294,
	call	_ZN5cgicc18HTMLBooleanElementINS_7htmlTagEED1Ev	#
	movq	%rbx, %rax	# tmp295, D.70213
	movq	%rax, %rdi	# D.70213,
# SUCC:
	call	_Unwind_Resume@PLT	#
# BLOCK 59 seq:57
# PRED: 11 (ABNORMAL,ABNORMAL_CALL,EH) 12 (ABNORMAL,ABNORMAL_CALL,EH)
.L56:
	endbr64	
# cgi.cpp:27:   cout << head() << endl;
	movq	%rax, %rbx	#, tmp297
	leaq	-208(%rbp), %rax	#, tmp296
	movq	%rax, %rdi	# tmp296,
	call	_ZN5cgicc18HTMLBooleanElementINS_7headTagEED1Ev	#
	movq	%rbx, %rax	# tmp297, D.70214
	movq	%rax, %rdi	# D.70214,
# SUCC:
	call	_Unwind_Resume@PLT	#
# BLOCK 60 seq:58
# PRED: 16 (ABNORMAL,ABNORMAL_CALL,EH) 17 (ABNORMAL,ABNORMAL_CALL,EH)
.L58:
	endbr64	
# cgi.cpp:28:   cout << title() << "Setting" << title() << endl;
	movq	%rax, %rbx	#, tmp300
	leaq	-208(%rbp), %rax	#, tmp298
	movq	%rax, %rdi	# tmp298,
	call	_ZN5cgicc18HTMLBooleanElementINS_8titleTagEED1Ev	#
# SUCC: 62 [always] 
	jmp	.L31	#
# BLOCK 61 seq:59
# PRED: 13 (ABNORMAL,ABNORMAL_CALL,EH) 14 (ABNORMAL,ABNORMAL_CALL,EH) 15 (ABNORMAL,ABNORMAL_CALL,EH)
.L57:
	endbr64	
# SUCC: 62 [always]  (FALLTHRU)
# cgi.cpp:28:   cout << title() << "Setting" << title() << endl;
	movq	%rax, %rbx	#, tmp299
# BLOCK 62 seq:60
# PRED: 61 [always]  (FALLTHRU) 60 [always] 
.L31:
# cgi.cpp:28:   cout << title() << "Setting" << title() << endl;
	leaq	-272(%rbp), %rax	#, tmp303
	movq	%rax, %rdi	# tmp303,
	call	_ZN5cgicc18HTMLBooleanElementINS_8titleTagEED1Ev	#
	movq	%rbx, %rax	# tmp299, D.70215
	movq	%rax, %rdi	# D.70215,
# SUCC:
	call	_Unwind_Resume@PLT	#
# BLOCK 63 seq:61
# PRED: 18 (ABNORMAL,ABNORMAL_CALL,EH) 19 (ABNORMAL,ABNORMAL_CALL,EH)
.L59:
	endbr64	
# cgi.cpp:29:   cout << head() << endl;
	movq	%rax, %rbx	#, tmp305
	leaq	-208(%rbp), %rax	#, tmp304
	movq	%rax, %rdi	# tmp304,
	call	_ZN5cgicc18HTMLBooleanElementINS_7headTagEED1Ev	#
	movq	%rbx, %rax	# tmp305, D.70216
	movq	%rax, %rdi	# D.70216,
# SUCC:
	call	_Unwind_Resume@PLT	#
# BLOCK 64 seq:62
# PRED: 20 (ABNORMAL,ABNORMAL_CALL,EH) 21 (ABNORMAL,ABNORMAL_CALL,EH)
.L60:
	endbr64	
# cgi.cpp:31:   cout << body() << endl;
	movq	%rax, %rbx	#, tmp307
	leaq	-208(%rbp), %rax	#, tmp306
	movq	%rax, %rdi	# tmp306,
	call	_ZN5cgicc18HTMLBooleanElementINS_7bodyTagEED1Ev	#
	movq	%rbx, %rax	# tmp307, D.70217
	movq	%rax, %rdi	# D.70217,
# SUCC:
	call	_Unwind_Resume@PLT	#
# BLOCK 65 seq:63
# PRED: 25 (ABNORMAL,ABNORMAL_CALL,EH) 26 (ABNORMAL,ABNORMAL_CALL,EH)
.L62:
	endbr64	
# cgi.cpp:32:   cout << h1() << "C0mf0rt Router -- Setting" << h1() << endl;
	movq	%rax, %rbx	#, tmp310
	leaq	-208(%rbp), %rax	#, tmp308
	movq	%rax, %rdi	# tmp308,
	call	_ZN5cgicc18HTMLBooleanElementINS_5h1TagEED1Ev	#
# SUCC: 67 [always] 
	jmp	.L35	#
# BLOCK 66 seq:64
# PRED: 22 (ABNORMAL,ABNORMAL_CALL,EH) 23 (ABNORMAL,ABNORMAL_CALL,EH) 24 (ABNORMAL,ABNORMAL_CALL,EH)
.L61:
	endbr64	
# SUCC: 67 [always]  (FALLTHRU)
# cgi.cpp:32:   cout << h1() << "C0mf0rt Router -- Setting" << h1() << endl;
	movq	%rax, %rbx	#, tmp309
# BLOCK 67 seq:65
# PRED: 66 [always]  (FALLTHRU) 65 [always] 
.L35:
# cgi.cpp:32:   cout << h1() << "C0mf0rt Router -- Setting" << h1() << endl;
	leaq	-272(%rbp), %rax	#, tmp313
	movq	%rax, %rdi	# tmp313,
	call	_ZN5cgicc18HTMLBooleanElementINS_5h1TagEED1Ev	#
	movq	%rbx, %rax	# tmp309, D.70218
	movq	%rax, %rdi	# D.70218,
# SUCC:
	call	_Unwind_Resume@PLT	#
# BLOCK 68 seq:66
# PRED: 27 (ABNORMAL,ABNORMAL_CALL,EH) 28 (ABNORMAL,ABNORMAL_CALL,EH)
.L63:
	endbr64	
# cgi.cpp:36:   cout << br() << endl;
	movq	%rax, %rbx	#, tmp315
	leaq	-208(%rbp), %rax	#, tmp314
	movq	%rax, %rdi	# tmp314,
	call	_ZN5cgicc17HTMLAtomicElementINS_5brTagEED1Ev	#
	movq	%rbx, %rax	# tmp315, D.70219
	movq	%rax, %rdi	# D.70219,
# SUCC:
	call	_Unwind_Resume@PLT	#
# BLOCK 69 seq:67
# PRED: 31 (ABNORMAL,ABNORMAL_CALL,EH) 32 (ABNORMAL,ABNORMAL_CALL,EH) 33 (ABNORMAL,ABNORMAL_CALL,EH)
.L66:
	endbr64	
# cgi.cpp:39:   cout << hr().set("class", "half") << endl;
	movq	%rax, %rbx	#, tmp318
	leaq	-304(%rbp), %rax	#, tmp316
	movq	%rax, %rdi	# tmp316,
	call	_ZNSt7__cxx1112basic_stringIcSt11char_traitsIcESaIcEED1Ev@PLT	#
# SUCC: 71 [always] 
	jmp	.L38	#
# BLOCK 70 seq:68
# PRED: 30 (ABNORMAL,ABNORMAL_CALL,EH)
.L65:
	endbr64	
# SUCC: 71 [always]  (FALLTHRU)
	movq	%rax, %rbx	#, tmp317
# BLOCK 71 seq:69
# PRED: 70 [always]  (FALLTHRU) 69 [always] 
.L38:
# cgi.cpp:39:   cout << hr().set("class", "half") << endl;
	leaq	-393(%rbp), %rax	#, tmp321
	movq	%rax, %rdi	# tmp321,
	call	_ZNSaIcED1Ev@PLT	#
	leaq	-272(%rbp), %rax	#, tmp324
	movq	%rax, %rdi	# tmp324,
	call	_ZNSt7__cxx1112basic_stringIcSt11char_traitsIcESaIcEED1Ev@PLT	#
# SUCC: 73 [always] 
	jmp	.L39	#
# BLOCK 72 seq:70
# PRED: 29 (ABNORMAL,ABNORMAL_CALL,EH)
.L64:
	endbr64	
# SUCC: 73 [always]  (FALLTHRU)
# cgi.cpp:39:   cout << hr().set("class", "half") << endl;
	movq	%rax, %rbx	#, tmp325
# BLOCK 73 seq:71
# PRED: 72 [always]  (FALLTHRU) 71 [always] 
.L39:
# cgi.cpp:39:   cout << hr().set("class", "half") << endl;
	leaq	-384(%rbp), %rax	#, tmp327
	movq	%rax, %rdi	# tmp327,
	call	_ZNSaIcED1Ev@PLT	#
# cgi.cpp:39:   cout << hr().set("class", "half") << endl;
	leaq	-208(%rbp), %rax	#, tmp330
	movq	%rax, %rdi	# tmp330,
	call	_ZN5cgicc17HTMLAtomicElementINS_5hrTagEED1Ev	#
	movq	%rbx, %rax	# tmp328, D.70220
	movq	%rax, %rdi	# D.70220,
# SUCC:
	call	_Unwind_Resume@PLT	#
# BLOCK 74 seq:72
# PRED: 39 (ABNORMAL,ABNORMAL_CALL,EH) 40 (ABNORMAL,ABNORMAL_CALL,EH) 41 (ABNORMAL,ABNORMAL_CALL,EH)
.L72:
	endbr64	
# cgi.cpp:40:   cout << cgicc::div().set("align", "center").set("class", "smaller") << endl;
	movq	%rax, %rbx	#, tmp333
	leaq	-304(%rbp), %rax	#, tmp331
	movq	%rax, %rdi	# tmp331,
	call	_ZNSt7__cxx1112basic_stringIcSt11char_traitsIcESaIcEED1Ev@PLT	#
# SUCC: 76 [always] 
	jmp	.L41	#
# BLOCK 75 seq:73
# PRED: 38 (ABNORMAL,ABNORMAL_CALL,EH)
.L71:
	endbr64	
# SUCC: 76 [always]  (FALLTHRU)
	movq	%rax, %rbx	#, tmp332
# BLOCK 76 seq:74
# PRED: 75 [always]  (FALLTHRU) 74 [always] 
.L41:
# cgi.cpp:40:   cout << cgicc::div().set("align", "center").set("class", "smaller") << endl;
	leaq	-393(%rbp), %rax	#, tmp336
	movq	%rax, %rdi	# tmp336,
	call	_ZNSaIcED1Ev@PLT	#
	leaq	-272(%rbp), %rax	#, tmp339
	movq	%rax, %rdi	# tmp339,
	call	_ZNSt7__cxx1112basic_stringIcSt11char_traitsIcESaIcEED1Ev@PLT	#
# SUCC: 78 [always] 
	jmp	.L42	#
# BLOCK 77 seq:75
# PRED: 37 (ABNORMAL,ABNORMAL_CALL,EH)
.L70:
	endbr64	
# SUCC: 78 [always]  (FALLTHRU)
# cgi.cpp:40:   cout << cgicc::div().set("align", "center").set("class", "smaller") << endl;
	movq	%rax, %rbx	#, tmp340
# BLOCK 78 seq:76
# PRED: 77 [always]  (FALLTHRU) 76 [always] 
.L42:
# cgi.cpp:40:   cout << cgicc::div().set("align", "center").set("class", "smaller") << endl;
	leaq	-384(%rbp), %rax	#, tmp342
	movq	%rax, %rdi	# tmp342,
	call	_ZNSaIcED1Ev@PLT	#
# SUCC: 80 [always] 
	jmp	.L43	#
# BLOCK 79 seq:77
# PRED: 36 (ABNORMAL,ABNORMAL_CALL,EH)
.L69:
	endbr64	
# SUCC: 80 [always]  (FALLTHRU)
# cgi.cpp:40:   cout << cgicc::div().set("align", "center").set("class", "smaller") << endl;
	movq	%rax, %rbx	#, tmp343
# BLOCK 80 seq:78
# PRED: 79 [always]  (FALLTHRU) 78 [always] 
.L43:
# cgi.cpp:40:   cout << cgicc::div().set("align", "center").set("class", "smaller") << endl;
	leaq	-368(%rbp), %rax	#, tmp345
	movq	%rax, %rdi	# tmp345,
	call	_ZNSt7__cxx1112basic_stringIcSt11char_traitsIcESaIcEED1Ev@PLT	#
# SUCC: 82 [always] 
	jmp	.L44	#
# BLOCK 81 seq:79
# PRED: 35 (ABNORMAL,ABNORMAL_CALL,EH)
.L68:
	endbr64	
# SUCC: 82 [always]  (FALLTHRU)
# cgi.cpp:40:   cout << cgicc::div().set("align", "center").set("class", "smaller") << endl;
	movq	%rax, %rbx	#, tmp346
# BLOCK 82 seq:80
# PRED: 81 [always]  (FALLTHRU) 80 [always] 
.L44:
# cgi.cpp:40:   cout << cgicc::div().set("align", "center").set("class", "smaller") << endl;
	leaq	-395(%rbp), %rax	#, tmp348
	movq	%rax, %rdi	# tmp348,
	call	_ZNSaIcED1Ev@PLT	#
	leaq	-336(%rbp), %rax	#, tmp351
	movq	%rax, %rdi	# tmp351,
	call	_ZNSt7__cxx1112basic_stringIcSt11char_traitsIcESaIcEED1Ev@PLT	#
# SUCC: 84 [always] 
	jmp	.L45	#
# BLOCK 83 seq:81
# PRED: 34 (ABNORMAL,ABNORMAL_CALL,EH)
.L67:
	endbr64	
# SUCC: 84 [always]  (FALLTHRU)
# cgi.cpp:40:   cout << cgicc::div().set("align", "center").set("class", "smaller") << endl;
	movq	%rax, %rbx	#, tmp352
# BLOCK 84 seq:82
# PRED: 83 [always]  (FALLTHRU) 82 [always] 
.L45:
# cgi.cpp:40:   cout << cgicc::div().set("align", "center").set("class", "smaller") << endl;
	leaq	-394(%rbp), %rax	#, tmp354
	movq	%rax, %rdi	# tmp354,
	call	_ZNSaIcED1Ev@PLT	#
# cgi.cpp:40:   cout << cgicc::div().set("align", "center").set("class", "smaller") << endl;
	leaq	-208(%rbp), %rax	#, tmp357
	movq	%rax, %rdi	# tmp357,
	call	_ZN5cgicc18HTMLBooleanElementINS_6divTagEED1Ev	#
	movq	%rbx, %rax	# tmp355, D.70221
	movq	%rax, %rdi	# D.70221,
# SUCC:
	call	_Unwind_Resume@PLT	#
# BLOCK 85 seq:83
# PRED: 42 (ABNORMAL,ABNORMAL_CALL,EH) 43 (ABNORMAL,ABNORMAL_CALL,EH)
.L73:
	endbr64	
# cgi.cpp:43:   cout << cgicc::div() << endl;
	movq	%rax, %rbx	#, tmp359
	leaq	-208(%rbp), %rax	#, tmp358
	movq	%rax, %rdi	# tmp358,
	call	_ZN5cgicc18HTMLBooleanElementINS_6divTagEED1Ev	#
	movq	%rbx, %rax	# tmp359, D.70222
	movq	%rax, %rdi	# D.70222,
# SUCC:
	call	_Unwind_Resume@PLT	#
# BLOCK 86 seq:84
# PRED: 46 (ABNORMAL,ABNORMAL_CALL,EH) 47 (ABNORMAL,ABNORMAL_CALL,EH)
.L75:
	endbr64	
# cgi.cpp:44:   cout << body() << html() << endl;
	movq	%rax, %rbx	#, tmp362
	leaq	-208(%rbp), %rax	#, tmp360
	movq	%rax, %rdi	# tmp360,
	call	_ZN5cgicc18HTMLBooleanElementINS_7htmlTagEED1Ev	#
# SUCC: 88 [always] 
	jmp	.L48	#
# BLOCK 87 seq:85
# PRED: 44 (ABNORMAL,ABNORMAL_CALL,EH) 45 (ABNORMAL,ABNORMAL_CALL,EH)
.L74:
	endbr64	
# SUCC: 88 [always]  (FALLTHRU)
# cgi.cpp:44:   cout << body() << html() << endl;
	movq	%rax, %rbx	#, tmp361
# BLOCK 88 seq:86
# PRED: 87 [always]  (FALLTHRU) 86 [always] 
.L48:
# cgi.cpp:44:   cout << body() << html() << endl;
	leaq	-272(%rbp), %rax	#, tmp365
	movq	%rax, %rdi	# tmp365,
	call	_ZN5cgicc18HTMLBooleanElementINS_7bodyTagEED1Ev	#
	movq	%rbx, %rax	# tmp361, D.70223
	movq	%rax, %rdi	# D.70223,
# SUCC:
	call	_Unwind_Resume@PLT	#
.LEHE39:
# BLOCK 89 seq:87
# PRED: 49 [always] 
.L76:
# SUCC:
# cgi.cpp:45: }
	call	__stack_chk_fail@PLT	#
# BLOCK 90 seq:88
# PRED: 48
.L49:
	movq	-8(%rbp), %rbx	#,
	leave	
	.cfi_def_cfa 7, 8
# SUCC: EXIT [always] 
	ret	
	.cfi_endproc
.LFE2487:
	.globl	__gxx_personality_v0
	.section	.gcc_except_table,"a",@progbits
.LLSDA2487:
	.byte	0xff	# @LPStart format (omit)
	.byte	0xff	# @TType format (omit)
	.byte	0x1	# call-site format (uleb128)
	.uleb128 .LLSDACSE2487-.LLSDACSB2487	# Call-site table length
.LLSDACSB2487:
	.uleb128 .LEHB0-.LFB2487	# region 0 start
	.uleb128 .LEHE0-.LEHB0	# length
	.uleb128 0	# landing pad
	.uleb128 0	# action
	.uleb128 .LEHB1-.LFB2487	# region 1 start
	.uleb128 .LEHE1-.LEHB1	# length
	.uleb128 .L50-.LFB2487	# landing pad
	.uleb128 0	# action
	.uleb128 .LEHB2-.LFB2487	# region 2 start
	.uleb128 .LEHE2-.LEHB2	# length
	.uleb128 .L51-.LFB2487	# landing pad
	.uleb128 0	# action
	.uleb128 .LEHB3-.LFB2487	# region 3 start
	.uleb128 .LEHE3-.LEHB3	# length
	.uleb128 .L52-.LFB2487	# landing pad
	.uleb128 0	# action
	.uleb128 .LEHB4-.LFB2487	# region 4 start
	.uleb128 .LEHE4-.LEHB4	# length
	.uleb128 .L53-.LFB2487	# landing pad
	.uleb128 0	# action
	.uleb128 .LEHB5-.LFB2487	# region 5 start
	.uleb128 .LEHE5-.LEHB5	# length
	.uleb128 0	# landing pad
	.uleb128 0	# action
	.uleb128 .LEHB6-.LFB2487	# region 6 start
	.uleb128 .LEHE6-.LEHB6	# length
	.uleb128 .L54-.LFB2487	# landing pad
	.uleb128 0	# action
	.uleb128 .LEHB7-.LFB2487	# region 7 start
	.uleb128 .LEHE7-.LEHB7	# length
	.uleb128 0	# landing pad
	.uleb128 0	# action
	.uleb128 .LEHB8-.LFB2487	# region 8 start
	.uleb128 .LEHE8-.LEHB8	# length
	.uleb128 .L55-.LFB2487	# landing pad
	.uleb128 0	# action
	.uleb128 .LEHB9-.LFB2487	# region 9 start
	.uleb128 .LEHE9-.LEHB9	# length
	.uleb128 0	# landing pad
	.uleb128 0	# action
	.uleb128 .LEHB10-.LFB2487	# region 10 start
	.uleb128 .LEHE10-.LEHB10	# length
	.uleb128 .L56-.LFB2487	# landing pad
	.uleb128 0	# action
	.uleb128 .LEHB11-.LFB2487	# region 11 start
	.uleb128 .LEHE11-.LEHB11	# length
	.uleb128 0	# landing pad
	.uleb128 0	# action
	.uleb128 .LEHB12-.LFB2487	# region 12 start
	.uleb128 .LEHE12-.LEHB12	# length
	.uleb128 .L57-.LFB2487	# landing pad
	.uleb128 0	# action
	.uleb128 .LEHB13-.LFB2487	# region 13 start
	.uleb128 .LEHE13-.LEHB13	# length
	.uleb128 .L58-.LFB2487	# landing pad
	.uleb128 0	# action
	.uleb128 .LEHB14-.LFB2487	# region 14 start
	.uleb128 .LEHE14-.LEHB14	# length
	.uleb128 0	# landing pad
	.uleb128 0	# action
	.uleb128 .LEHB15-.LFB2487	# region 15 start
	.uleb128 .LEHE15-.LEHB15	# length
	.uleb128 .L59-.LFB2487	# landing pad
	.uleb128 0	# action
	.uleb128 .LEHB16-.LFB2487	# region 16 start
	.uleb128 .LEHE16-.LEHB16	# length
	.uleb128 0	# landing pad
	.uleb128 0	# action
	.uleb128 .LEHB17-.LFB2487	# region 17 start
	.uleb128 .LEHE17-.LEHB17	# length
	.uleb128 .L60-.LFB2487	# landing pad
	.uleb128 0	# action
	.uleb128 .LEHB18-.LFB2487	# region 18 start
	.uleb128 .LEHE18-.LEHB18	# length
	.uleb128 0	# landing pad
	.uleb128 0	# action
	.uleb128 .LEHB19-.LFB2487	# region 19 start
	.uleb128 .LEHE19-.LEHB19	# length
	.uleb128 .L61-.LFB2487	# landing pad
	.uleb128 0	# action
	.uleb128 .LEHB20-.LFB2487	# region 20 start
	.uleb128 .LEHE20-.LEHB20	# length
	.uleb128 .L62-.LFB2487	# landing pad
	.uleb128 0	# action
	.uleb128 .LEHB21-.LFB2487	# region 21 start
	.uleb128 .LEHE21-.LEHB21	# length
	.uleb128 0	# landing pad
	.uleb128 0	# action
	.uleb128 .LEHB22-.LFB2487	# region 22 start
	.uleb128 .LEHE22-.LEHB22	# length
	.uleb128 .L63-.LFB2487	# landing pad
	.uleb128 0	# action
	.uleb128 .LEHB23-.LFB2487	# region 23 start
	.uleb128 .LEHE23-.LEHB23	# length
	.uleb128 0	# landing pad
	.uleb128 0	# action
	.uleb128 .LEHB24-.LFB2487	# region 24 start
	.uleb128 .LEHE24-.LEHB24	# length
	.uleb128 .L64-.LFB2487	# landing pad
	.uleb128 0	# action
	.uleb128 .LEHB25-.LFB2487	# region 25 start
	.uleb128 .LEHE25-.LEHB25	# length
	.uleb128 .L65-.LFB2487	# landing pad
	.uleb128 0	# action
	.uleb128 .LEHB26-.LFB2487	# region 26 start
	.uleb128 .LEHE26-.LEHB26	# length
	.uleb128 .L66-.LFB2487	# landing pad
	.uleb128 0	# action
	.uleb128 .LEHB27-.LFB2487	# region 27 start
	.uleb128 .LEHE27-.LEHB27	# length
	.uleb128 0	# landing pad
	.uleb128 0	# action
	.uleb128 .LEHB28-.LFB2487	# region 28 start
	.uleb128 .LEHE28-.LEHB28	# length
	.uleb128 .L67-.LFB2487	# landing pad
	.uleb128 0	# action
	.uleb128 .LEHB29-.LFB2487	# region 29 start
	.uleb128 .LEHE29-.LEHB29	# length
	.uleb128 .L68-.LFB2487	# landing pad
	.uleb128 0	# action
	.uleb128 .LEHB30-.LFB2487	# region 30 start
	.uleb128 .LEHE30-.LEHB30	# length
	.uleb128 .L69-.LFB2487	# landing pad
	.uleb128 0	# action
	.uleb128 .LEHB31-.LFB2487	# region 31 start
	.uleb128 .LEHE31-.LEHB31	# length
	.uleb128 .L70-.LFB2487	# landing pad
	.uleb128 0	# action
	.uleb128 .LEHB32-.LFB2487	# region 32 start
	.uleb128 .LEHE32-.LEHB32	# length
	.uleb128 .L71-.LFB2487	# landing pad
	.uleb128 0	# action
	.uleb128 .LEHB33-.LFB2487	# region 33 start
	.uleb128 .LEHE33-.LEHB33	# length
	.uleb128 .L72-.LFB2487	# landing pad
	.uleb128 0	# action
	.uleb128 .LEHB34-.LFB2487	# region 34 start
	.uleb128 .LEHE34-.LEHB34	# length
	.uleb128 0	# landing pad
	.uleb128 0	# action
	.uleb128 .LEHB35-.LFB2487	# region 35 start
	.uleb128 .LEHE35-.LEHB35	# length
	.uleb128 .L73-.LFB2487	# landing pad
	.uleb128 0	# action
	.uleb128 .LEHB36-.LFB2487	# region 36 start
	.uleb128 .LEHE36-.LEHB36	# length
	.uleb128 0	# landing pad
	.uleb128 0	# action
	.uleb128 .LEHB37-.LFB2487	# region 37 start
	.uleb128 .LEHE37-.LEHB37	# length
	.uleb128 .L74-.LFB2487	# landing pad
	.uleb128 0	# action
	.uleb128 .LEHB38-.LFB2487	# region 38 start
	.uleb128 .LEHE38-.LEHB38	# length
	.uleb128 .L75-.LFB2487	# landing pad
	.uleb128 0	# action
	.uleb128 .LEHB39-.LFB2487	# region 39 start
	.uleb128 .LEHE39-.LEHB39	# length
	.uleb128 0	# landing pad
	.uleb128 0	# action
.LLSDACSE2487:
	.text
	.size	_Z15ShowSettingPageRKN5cgicc5CgiccE, .-_Z15ShowSettingPageRKN5cgicc5CgiccE
	.section	.rodata
	.align 8
.LC23:
	.string	"<form method=\"post\" action=\"setting.cgi\">"
.LC24:
	.string	"<table>"
	.align 8
.LC25:
	.string	"<tr><td class=\"title\">User</td>"
.LC26:
	.string	"<td class=\"form\">"
	.align 8
.LC27:
	.string	"<input type=\"text\" name=\"user\" />"
.LC28:
	.string	"</td></tr>"
	.align 8
.LC29:
	.string	"<tr><td class=\"title\">Password</td>"
	.align 8
.LC30:
	.string	"<input type=\"text\" name=\"password\" />"
.LC31:
	.string	"</table>"
.LC32:
	.string	"<div class=\"center\"><p>"
	.align 8
.LC33:
	.string	"<input type=\"submit\" name=\"submit\" value=\"Login\" />"
.LC34:
	.string	"</p></div></form>"
	.text
	.globl	_Z9PrintFormRKN5cgicc5CgiccE
	.type	_Z9PrintFormRKN5cgicc5CgiccE, @function
_Z9PrintFormRKN5cgicc5CgiccE:
.LFB2488:
	.cfi_startproc
	endbr64	
# BLOCK 2 seq:0
# PRED: ENTRY (FALLTHRU)
	pushq	%rbp	#
	.cfi_def_cfa_offset 16
	.cfi_offset 6, -16
	movq	%rsp, %rbp	#,
	.cfi_def_cfa_register 6
	subq	$16, %rsp	#,
	movq	%rdi, -8(%rbp)	# cgi, cgi
# cgi.cpp:49:   cout << "<form method=\"post\" action=\"setting.cgi\">" << endl; 
	leaq	.LC23(%rip), %rax	#, tmp96
	movq	%rax, %rsi	# tmp96,
	leaq	_ZSt4cout(%rip), %rax	#, tmp97
	movq	%rax, %rdi	# tmp97,
	call	_ZStlsISt11char_traitsIcEERSt13basic_ostreamIcT_ES5_PKc@PLT	#
# cgi.cpp:49:   cout << "<form method=\"post\" action=\"setting.cgi\">" << endl; 
	movq	_ZSt4endlIcSt11char_traitsIcEERSt13basic_ostreamIT_T0_ES6_@GOTPCREL(%rip), %rdx	#, tmp99
	movq	%rdx, %rsi	# tmp98,
	movq	%rax, %rdi	# _1,
	call	_ZNSolsEPFRSoS_E@PLT	#
# cgi.cpp:51:   cout << "<table>" << endl;
	leaq	.LC24(%rip), %rax	#, tmp100
	movq	%rax, %rsi	# tmp100,
	leaq	_ZSt4cout(%rip), %rax	#, tmp101
	movq	%rax, %rdi	# tmp101,
	call	_ZStlsISt11char_traitsIcEERSt13basic_ostreamIcT_ES5_PKc@PLT	#
# cgi.cpp:51:   cout << "<table>" << endl;
	movq	_ZSt4endlIcSt11char_traitsIcEERSt13basic_ostreamIT_T0_ES6_@GOTPCREL(%rip), %rdx	#, tmp103
	movq	%rdx, %rsi	# tmp102,
	movq	%rax, %rdi	# _2,
	call	_ZNSolsEPFRSoS_E@PLT	#
# cgi.cpp:56:        << "</td></tr>" << endl;
	leaq	.LC25(%rip), %rax	#, tmp104
	movq	%rax, %rsi	# tmp104,
	leaq	_ZSt4cout(%rip), %rax	#, tmp105
	movq	%rax, %rdi	# tmp105,
	call	_ZStlsISt11char_traitsIcEERSt13basic_ostreamIcT_ES5_PKc@PLT	#
	movq	%rax, %rdx	#, _3
	leaq	.LC26(%rip), %rax	#, tmp106
	movq	%rax, %rsi	# tmp106,
	movq	%rdx, %rdi	# _3,
	call	_ZStlsISt11char_traitsIcEERSt13basic_ostreamIcT_ES5_PKc@PLT	#
	movq	%rax, %rdx	#, _4
	leaq	.LC27(%rip), %rax	#, tmp107
	movq	%rax, %rsi	# tmp107,
	movq	%rdx, %rdi	# _4,
	call	_ZStlsISt11char_traitsIcEERSt13basic_ostreamIcT_ES5_PKc@PLT	#
	movq	%rax, %rdx	#, _5
	leaq	.LC28(%rip), %rax	#, tmp108
	movq	%rax, %rsi	# tmp108,
	movq	%rdx, %rdi	# _5,
	call	_ZStlsISt11char_traitsIcEERSt13basic_ostreamIcT_ES5_PKc@PLT	#
# cgi.cpp:56:        << "</td></tr>" << endl;
	movq	_ZSt4endlIcSt11char_traitsIcEERSt13basic_ostreamIT_T0_ES6_@GOTPCREL(%rip), %rdx	#, tmp110
	movq	%rdx, %rsi	# tmp109,
	movq	%rax, %rdi	# _6,
	call	_ZNSolsEPFRSoS_E@PLT	#
# cgi.cpp:61:        << "</td></tr>" << endl;
	leaq	.LC29(%rip), %rax	#, tmp111
	movq	%rax, %rsi	# tmp111,
	leaq	_ZSt4cout(%rip), %rax	#, tmp112
	movq	%rax, %rdi	# tmp112,
	call	_ZStlsISt11char_traitsIcEERSt13basic_ostreamIcT_ES5_PKc@PLT	#
	movq	%rax, %rdx	#, _7
	leaq	.LC26(%rip), %rax	#, tmp113
	movq	%rax, %rsi	# tmp113,
	movq	%rdx, %rdi	# _7,
	call	_ZStlsISt11char_traitsIcEERSt13basic_ostreamIcT_ES5_PKc@PLT	#
	movq	%rax, %rdx	#, _8
	leaq	.LC30(%rip), %rax	#, tmp114
	movq	%rax, %rsi	# tmp114,
	movq	%rdx, %rdi	# _8,
	call	_ZStlsISt11char_traitsIcEERSt13basic_ostreamIcT_ES5_PKc@PLT	#
	movq	%rax, %rdx	#, _9
	leaq	.LC28(%rip), %rax	#, tmp115
	movq	%rax, %rsi	# tmp115,
	movq	%rdx, %rdi	# _9,
	call	_ZStlsISt11char_traitsIcEERSt13basic_ostreamIcT_ES5_PKc@PLT	#
# cgi.cpp:61:        << "</td></tr>" << endl;
	movq	_ZSt4endlIcSt11char_traitsIcEERSt13basic_ostreamIT_T0_ES6_@GOTPCREL(%rip), %rdx	#, tmp117
	movq	%rdx, %rsi	# tmp116,
	movq	%rax, %rdi	# _10,
	call	_ZNSolsEPFRSoS_E@PLT	#
# cgi.cpp:63:   cout << "</table>" << endl;
	leaq	.LC31(%rip), %rax	#, tmp118
	movq	%rax, %rsi	# tmp118,
	leaq	_ZSt4cout(%rip), %rax	#, tmp119
	movq	%rax, %rdi	# tmp119,
	call	_ZStlsISt11char_traitsIcEERSt13basic_ostreamIcT_ES5_PKc@PLT	#
# cgi.cpp:63:   cout << "</table>" << endl;
	movq	_ZSt4endlIcSt11char_traitsIcEERSt13basic_ostreamIT_T0_ES6_@GOTPCREL(%rip), %rdx	#, tmp121
	movq	%rdx, %rsi	# tmp120,
	movq	%rax, %rdi	# _11,
	call	_ZNSolsEPFRSoS_E@PLT	#
# cgi.cpp:67:        << "</p></div></form>" << endl;
	leaq	.LC32(%rip), %rax	#, tmp122
	movq	%rax, %rsi	# tmp122,
	leaq	_ZSt4cout(%rip), %rax	#, tmp123
	movq	%rax, %rdi	# tmp123,
	call	_ZStlsISt11char_traitsIcEERSt13basic_ostreamIcT_ES5_PKc@PLT	#
	movq	%rax, %rdx	#, _12
	leaq	.LC33(%rip), %rax	#, tmp124
	movq	%rax, %rsi	# tmp124,
	movq	%rdx, %rdi	# _12,
	call	_ZStlsISt11char_traitsIcEERSt13basic_ostreamIcT_ES5_PKc@PLT	#
	movq	%rax, %rdx	#, _13
	leaq	.LC34(%rip), %rax	#, tmp125
	movq	%rax, %rsi	# tmp125,
	movq	%rdx, %rdi	# _13,
	call	_ZStlsISt11char_traitsIcEERSt13basic_ostreamIcT_ES5_PKc@PLT	#
# cgi.cpp:67:        << "</p></div></form>" << endl;
	movq	_ZSt4endlIcSt11char_traitsIcEERSt13basic_ostreamIT_T0_ES6_@GOTPCREL(%rip), %rdx	#, tmp127
	movq	%rdx, %rsi	# tmp126,
	movq	%rax, %rdi	# _14,
	call	_ZNSolsEPFRSoS_E@PLT	#
# cgi.cpp:68: }
	nop	
	leave	
	.cfi_def_cfa 7, 8
# SUCC: EXIT [always] 
	ret	
	.cfi_endproc
.LFE2488:
	.size	_Z9PrintFormRKN5cgicc5CgiccE, .-_Z9PrintFormRKN5cgicc5CgiccE
	.section	.rodata
.LC35:
	.string	"Login"
.LC36:
	.string	"C0mf0rt Router -- Login"
	.align 8
.LC37:
	.string	"<p style=\"color: red;\">Login failed.</p>"
	.text
	.globl	_Z13ShowLoginPageRKN5cgicc5CgiccEb
	.type	_Z13ShowLoginPageRKN5cgicc5CgiccEb, @function
_Z13ShowLoginPageRKN5cgicc5CgiccEb:
.LFB2489:
	.cfi_startproc
	.cfi_personality 0x9b,DW.ref.__gxx_personality_v0
	.cfi_lsda 0x1b,.LLSDA2489
	endbr64	
# BLOCK 2 seq:0
# PRED: ENTRY (FALLTHRU)
	pushq	%rbp	#
	.cfi_def_cfa_offset 16
	.cfi_offset 6, -16
	movq	%rsp, %rbp	#,
	.cfi_def_cfa_register 6
	pushq	%rbx	#
	subq	$296, %rsp	#,
	.cfi_offset 3, -24
	movq	%rdi, -296(%rbp)	# cgi, cgi
	movl	%esi, %eax	# login_failed, tmp116
	movb	%al, -300(%rbp)	# tmp117, login_failed
# cgi.cpp:70: void ShowLoginPage(const Cgicc& cgi, bool login_failed) {
	movq	%fs:40, %rax	# MEM[(<address-space-1> long unsigned int *)40B], tmp324
	movq	%rax, -24(%rbp)	# tmp324, D.70263
	xorl	%eax, %eax	# tmp324
# cgi.cpp:71:     cout << HTTPHTMLHeader();
	leaq	-96(%rbp), %rax	#, tmp118
	movq	%rax, %rdi	# tmp118,
.LEHB40:
	call	_ZN5cgicc14HTTPHTMLHeaderC1Ev@PLT	#
.LEHE40:
# cgi.cpp:71:     cout << HTTPHTMLHeader();
	leaq	-96(%rbp), %rax	#, tmp119
	movq	%rax, %rsi	# tmp119,
	leaq	_ZSt4cout(%rip), %rax	#, tmp120
	movq	%rax, %rdi	# tmp120,
.LEHB41:
# SUCC: 46 (ABNORMAL,ABNORMAL_CALL,EH) 3 (FALLTHRU)
	call	_ZN5cgicclsERSoRKNS_11MStreamableE@PLT	#
.LEHE41:
# BLOCK 3 seq:1
# PRED: 2 (FALLTHRU)
# cgi.cpp:71:     cout << HTTPHTMLHeader();
	leaq	-96(%rbp), %rax	#, tmp121
	movq	%rax, %rdi	# tmp121,
	call	_ZN5cgicc14HTTPHTMLHeaderD1Ev@PLT	#
# cgi.cpp:72:     cout << HTMLDoctype(HTMLDoctype::eStrict) << endl;
	leaq	-272(%rbp), %rax	#, tmp122
	movl	$0, %esi	#,
	movq	%rax, %rdi	# tmp122,
.LEHB42:
	call	_ZN5cgicc11HTMLDoctypeC1ENS0_13EDocumentTypeE@PLT	#
.LEHE42:
# cgi.cpp:72:     cout << HTMLDoctype(HTMLDoctype::eStrict) << endl;
	leaq	-272(%rbp), %rax	#, tmp123
	movq	%rax, %rsi	# tmp123,
	leaq	_ZSt4cout(%rip), %rax	#, tmp124
	movq	%rax, %rdi	# tmp124,
.LEHB43:
# SUCC: 47 (ABNORMAL,ABNORMAL_CALL,EH) 4 (FALLTHRU)
	call	_ZN5cgicclsERSoRKNS_11MStreamableE@PLT	#
# BLOCK 4 seq:2
# PRED: 3 (FALLTHRU)
# cgi.cpp:72:     cout << HTMLDoctype(HTMLDoctype::eStrict) << endl;
	movq	_ZSt4endlIcSt11char_traitsIcEERSt13basic_ostreamIT_T0_ES6_@GOTPCREL(%rip), %rdx	#, tmp126
	movq	%rdx, %rsi	# tmp125,
	movq	%rax, %rdi	# _1,
# SUCC: 47 (ABNORMAL,ABNORMAL_CALL,EH) 5 (FALLTHRU)
	call	_ZNSolsEPFRSoS_E@PLT	#
.LEHE43:
# BLOCK 5 seq:3
# PRED: 4 (FALLTHRU)
# cgi.cpp:72:     cout << HTMLDoctype(HTMLDoctype::eStrict) << endl;
	leaq	-272(%rbp), %rax	#, tmp127
	movq	%rax, %rdi	# tmp127,
	call	_ZN5cgicc11HTMLDoctypeD1Ev@PLT	#
# cgi.cpp:73:     cout << html() << endl;
	leaq	-96(%rbp), %rax	#, tmp128
	movq	%rax, %rdi	# tmp128,
.LEHB44:
	call	_ZN5cgicc18HTMLBooleanElementINS_7htmlTagEEC1Ev	#
.LEHE44:
# cgi.cpp:73:     cout << html() << endl;
	leaq	-96(%rbp), %rax	#, tmp129
	movq	%rax, %rsi	# tmp129,
	leaq	_ZSt4cout(%rip), %rax	#, tmp130
	movq	%rax, %rdi	# tmp130,
.LEHB45:
# SUCC: 48 (ABNORMAL,ABNORMAL_CALL,EH) 6 (FALLTHRU)
	call	_ZN5cgicclsERSoRKNS_11MStreamableE@PLT	#
# BLOCK 6 seq:4
# PRED: 5 (FALLTHRU)
# cgi.cpp:73:     cout << html() << endl;
	movq	_ZSt4endlIcSt11char_traitsIcEERSt13basic_ostreamIT_T0_ES6_@GOTPCREL(%rip), %rdx	#, tmp132
	movq	%rdx, %rsi	# tmp131,
	movq	%rax, %rdi	# _2,
# SUCC: 48 (ABNORMAL,ABNORMAL_CALL,EH) 7 (FALLTHRU)
	call	_ZNSolsEPFRSoS_E@PLT	#
.LEHE45:
# BLOCK 7 seq:5
# PRED: 6 (FALLTHRU)
# cgi.cpp:73:     cout << html() << endl;
	leaq	-96(%rbp), %rax	#, tmp133
	movq	%rax, %rdi	# tmp133,
	call	_ZN5cgicc18HTMLBooleanElementINS_7htmlTagEED1Ev	#
# cgi.cpp:75:     cout << head() << endl;
	leaq	-96(%rbp), %rax	#, tmp134
	movq	%rax, %rdi	# tmp134,
.LEHB46:
	call	_ZN5cgicc18HTMLBooleanElementINS_7headTagEEC1Ev	#
.LEHE46:
# cgi.cpp:75:     cout << head() << endl;
	leaq	-96(%rbp), %rax	#, tmp135
	movq	%rax, %rsi	# tmp135,
	leaq	_ZSt4cout(%rip), %rax	#, tmp136
	movq	%rax, %rdi	# tmp136,
.LEHB47:
# SUCC: 49 (ABNORMAL,ABNORMAL_CALL,EH) 8 (FALLTHRU)
	call	_ZN5cgicclsERSoRKNS_11MStreamableE@PLT	#
# BLOCK 8 seq:6
# PRED: 7 (FALLTHRU)
# cgi.cpp:75:     cout << head() << endl;
	movq	_ZSt4endlIcSt11char_traitsIcEERSt13basic_ostreamIT_T0_ES6_@GOTPCREL(%rip), %rdx	#, tmp138
	movq	%rdx, %rsi	# tmp137,
	movq	%rax, %rdi	# _3,
# SUCC: 49 (ABNORMAL,ABNORMAL_CALL,EH) 9 (FALLTHRU)
	call	_ZNSolsEPFRSoS_E@PLT	#
.LEHE47:
# BLOCK 9 seq:7
# PRED: 8 (FALLTHRU)
# cgi.cpp:75:     cout << head() << endl;
	leaq	-96(%rbp), %rax	#, tmp139
	movq	%rax, %rdi	# tmp139,
	call	_ZN5cgicc18HTMLBooleanElementINS_7headTagEED1Ev	#
# cgi.cpp:76:     cout << title() << "Login" << title() << endl;
	leaq	-160(%rbp), %rax	#, tmp140
	movq	%rax, %rdi	# tmp140,
.LEHB48:
	call	_ZN5cgicc18HTMLBooleanElementINS_8titleTagEEC1Ev	#
.LEHE48:
# cgi.cpp:76:     cout << title() << "Login" << title() << endl;
	leaq	-160(%rbp), %rax	#, tmp141
	movq	%rax, %rsi	# tmp141,
	leaq	_ZSt4cout(%rip), %rax	#, tmp142
	movq	%rax, %rdi	# tmp142,
.LEHB49:
# SUCC: 51 (ABNORMAL,ABNORMAL_CALL,EH) 10 (FALLTHRU)
	call	_ZN5cgicclsERSoRKNS_11MStreamableE@PLT	#
# BLOCK 10 seq:8
# PRED: 9 (FALLTHRU)
	movq	%rax, %rdx	#, _4
# cgi.cpp:76:     cout << title() << "Login" << title() << endl;
	leaq	.LC35(%rip), %rax	#, tmp143
	movq	%rax, %rsi	# tmp143,
	movq	%rdx, %rdi	# _4,
# SUCC: 51 (ABNORMAL,ABNORMAL_CALL,EH) 11 (FALLTHRU)
	call	_ZStlsISt11char_traitsIcEERSt13basic_ostreamIcT_ES5_PKc@PLT	#
# BLOCK 11 seq:9
# PRED: 10 (FALLTHRU)
# cgi.cpp:76:     cout << title() << "Login" << title() << endl;
	movq	%rax, %rbx	#, _5
# cgi.cpp:76:     cout << title() << "Login" << title() << endl;
	leaq	-96(%rbp), %rax	#, tmp144
	movq	%rax, %rdi	# tmp144,
# SUCC: 51 (ABNORMAL,ABNORMAL_CALL,EH) 12 (FALLTHRU)
	call	_ZN5cgicc18HTMLBooleanElementINS_8titleTagEEC1Ev	#
.LEHE49:
# BLOCK 12 seq:10
# PRED: 11 (FALLTHRU)
# cgi.cpp:76:     cout << title() << "Login" << title() << endl;
	leaq	-96(%rbp), %rax	#, tmp145
	movq	%rax, %rsi	# tmp145,
	movq	%rbx, %rdi	# _5,
.LEHB50:
# SUCC: 50 (ABNORMAL,ABNORMAL_CALL,EH) 13 (FALLTHRU)
	call	_ZN5cgicclsERSoRKNS_11MStreamableE@PLT	#
# BLOCK 13 seq:11
# PRED: 12 (FALLTHRU)
# cgi.cpp:76:     cout << title() << "Login" << title() << endl;
	movq	_ZSt4endlIcSt11char_traitsIcEERSt13basic_ostreamIT_T0_ES6_@GOTPCREL(%rip), %rdx	#, tmp147
	movq	%rdx, %rsi	# tmp146,
	movq	%rax, %rdi	# _6,
# SUCC: 50 (ABNORMAL,ABNORMAL_CALL,EH) 14 (FALLTHRU)
	call	_ZNSolsEPFRSoS_E@PLT	#
.LEHE50:
# BLOCK 14 seq:12
# PRED: 13 (FALLTHRU)
# cgi.cpp:76:     cout << title() << "Login" << title() << endl;
	leaq	-96(%rbp), %rax	#, tmp148
	movq	%rax, %rdi	# tmp148,
	call	_ZN5cgicc18HTMLBooleanElementINS_8titleTagEED1Ev	#
# cgi.cpp:76:     cout << title() << "Login" << title() << endl;
	leaq	-160(%rbp), %rax	#, tmp149
	movq	%rax, %rdi	# tmp149,
	call	_ZN5cgicc18HTMLBooleanElementINS_8titleTagEED1Ev	#
# cgi.cpp:77:     cout << head() << endl;
	leaq	-96(%rbp), %rax	#, tmp150
	movq	%rax, %rdi	# tmp150,
.LEHB51:
	call	_ZN5cgicc18HTMLBooleanElementINS_7headTagEEC1Ev	#
.LEHE51:
# cgi.cpp:77:     cout << head() << endl;
	leaq	-96(%rbp), %rax	#, tmp151
	movq	%rax, %rsi	# tmp151,
	leaq	_ZSt4cout(%rip), %rax	#, tmp152
	movq	%rax, %rdi	# tmp152,
.LEHB52:
# SUCC: 53 (ABNORMAL,ABNORMAL_CALL,EH) 15 (FALLTHRU)
	call	_ZN5cgicclsERSoRKNS_11MStreamableE@PLT	#
# BLOCK 15 seq:13
# PRED: 14 (FALLTHRU)
# cgi.cpp:77:     cout << head() << endl;
	movq	_ZSt4endlIcSt11char_traitsIcEERSt13basic_ostreamIT_T0_ES6_@GOTPCREL(%rip), %rdx	#, tmp154
	movq	%rdx, %rsi	# tmp153,
	movq	%rax, %rdi	# _7,
# SUCC: 53 (ABNORMAL,ABNORMAL_CALL,EH) 16 (FALLTHRU)
	call	_ZNSolsEPFRSoS_E@PLT	#
.LEHE52:
# BLOCK 16 seq:14
# PRED: 15 (FALLTHRU)
# cgi.cpp:77:     cout << head() << endl;
	leaq	-96(%rbp), %rax	#, tmp155
	movq	%rax, %rdi	# tmp155,
	call	_ZN5cgicc18HTMLBooleanElementINS_7headTagEED1Ev	#
# cgi.cpp:79:     cout << body() << endl;
	leaq	-96(%rbp), %rax	#, tmp156
	movq	%rax, %rdi	# tmp156,
.LEHB53:
	call	_ZN5cgicc18HTMLBooleanElementINS_7bodyTagEEC1Ev	#
.LEHE53:
# cgi.cpp:79:     cout << body() << endl;
	leaq	-96(%rbp), %rax	#, tmp157
	movq	%rax, %rsi	# tmp157,
	leaq	_ZSt4cout(%rip), %rax	#, tmp158
	movq	%rax, %rdi	# tmp158,
.LEHB54:
# SUCC: 54 (ABNORMAL,ABNORMAL_CALL,EH) 17 (FALLTHRU)
	call	_ZN5cgicclsERSoRKNS_11MStreamableE@PLT	#
# BLOCK 17 seq:15
# PRED: 16 (FALLTHRU)
# cgi.cpp:79:     cout << body() << endl;
	movq	_ZSt4endlIcSt11char_traitsIcEERSt13basic_ostreamIT_T0_ES6_@GOTPCREL(%rip), %rdx	#, tmp160
	movq	%rdx, %rsi	# tmp159,
	movq	%rax, %rdi	# _8,
# SUCC: 54 (ABNORMAL,ABNORMAL_CALL,EH) 18 (FALLTHRU)
	call	_ZNSolsEPFRSoS_E@PLT	#
.LEHE54:
# BLOCK 18 seq:16
# PRED: 17 (FALLTHRU)
# cgi.cpp:79:     cout << body() << endl;
	leaq	-96(%rbp), %rax	#, tmp161
	movq	%rax, %rdi	# tmp161,
	call	_ZN5cgicc18HTMLBooleanElementINS_7bodyTagEED1Ev	#
# cgi.cpp:80:     cout << h1() << "C0mf0rt Router -- Login" << h1() << endl;
	leaq	-160(%rbp), %rax	#, tmp162
	movq	%rax, %rdi	# tmp162,
.LEHB55:
	call	_ZN5cgicc18HTMLBooleanElementINS_5h1TagEEC1Ev	#
.LEHE55:
# cgi.cpp:80:     cout << h1() << "C0mf0rt Router -- Login" << h1() << endl;
	leaq	-160(%rbp), %rax	#, tmp163
	movq	%rax, %rsi	# tmp163,
	leaq	_ZSt4cout(%rip), %rax	#, tmp164
	movq	%rax, %rdi	# tmp164,
.LEHB56:
# SUCC: 56 (ABNORMAL,ABNORMAL_CALL,EH) 19 (FALLTHRU)
	call	_ZN5cgicclsERSoRKNS_11MStreamableE@PLT	#
# BLOCK 19 seq:17
# PRED: 18 (FALLTHRU)
	movq	%rax, %rdx	#, _9
# cgi.cpp:80:     cout << h1() << "C0mf0rt Router -- Login" << h1() << endl;
	leaq	.LC36(%rip), %rax	#, tmp165
	movq	%rax, %rsi	# tmp165,
	movq	%rdx, %rdi	# _9,
# SUCC: 56 (ABNORMAL,ABNORMAL_CALL,EH) 20 (FALLTHRU)
	call	_ZStlsISt11char_traitsIcEERSt13basic_ostreamIcT_ES5_PKc@PLT	#
# BLOCK 20 seq:18
# PRED: 19 (FALLTHRU)
# cgi.cpp:80:     cout << h1() << "C0mf0rt Router -- Login" << h1() << endl;
	movq	%rax, %rbx	#, _10
# cgi.cpp:80:     cout << h1() << "C0mf0rt Router -- Login" << h1() << endl;
	leaq	-96(%rbp), %rax	#, tmp166
	movq	%rax, %rdi	# tmp166,
# SUCC: 56 (ABNORMAL,ABNORMAL_CALL,EH) 21 (FALLTHRU)
	call	_ZN5cgicc18HTMLBooleanElementINS_5h1TagEEC1Ev	#
.LEHE56:
# BLOCK 21 seq:19
# PRED: 20 (FALLTHRU)
# cgi.cpp:80:     cout << h1() << "C0mf0rt Router -- Login" << h1() << endl;
	leaq	-96(%rbp), %rax	#, tmp167
	movq	%rax, %rsi	# tmp167,
	movq	%rbx, %rdi	# _10,
.LEHB57:
# SUCC: 55 (ABNORMAL,ABNORMAL_CALL,EH) 22 (FALLTHRU)
	call	_ZN5cgicclsERSoRKNS_11MStreamableE@PLT	#
# BLOCK 22 seq:20
# PRED: 21 (FALLTHRU)
# cgi.cpp:80:     cout << h1() << "C0mf0rt Router -- Login" << h1() << endl;
	movq	_ZSt4endlIcSt11char_traitsIcEERSt13basic_ostreamIT_T0_ES6_@GOTPCREL(%rip), %rdx	#, tmp169
	movq	%rdx, %rsi	# tmp168,
	movq	%rax, %rdi	# _11,
# SUCC: 55 (ABNORMAL,ABNORMAL_CALL,EH) 23 (FALLTHRU)
	call	_ZNSolsEPFRSoS_E@PLT	#
.LEHE57:
# BLOCK 23 seq:21
# PRED: 22 (FALLTHRU)
# cgi.cpp:80:     cout << h1() << "C0mf0rt Router -- Login" << h1() << endl;
	leaq	-96(%rbp), %rax	#, tmp170
	movq	%rax, %rdi	# tmp170,
	call	_ZN5cgicc18HTMLBooleanElementINS_5h1TagEED1Ev	#
# cgi.cpp:80:     cout << h1() << "C0mf0rt Router -- Login" << h1() << endl;
	leaq	-160(%rbp), %rax	#, tmp171
	movq	%rax, %rdi	# tmp171,
	call	_ZN5cgicc18HTMLBooleanElementINS_5h1TagEED1Ev	#
# cgi.cpp:82:     const CgiEnvironment& env = cgi.getEnvironment();
	movq	-296(%rbp), %rax	# cgi, tmp172
	movq	%rax, %rdi	# tmp172,
	call	_ZNK5cgicc5Cgicc14getEnvironmentEv@PLT	#
	movq	%rax, -280(%rbp)	# tmp173, env
# cgi.cpp:84:     if (login_failed) {
	cmpb	$0, -300(%rbp)	#, login_failed
# SUCC: 24 (FALLTHRU) 25
	je	.L79	#,
# BLOCK 24 seq:22
# PRED: 23 (FALLTHRU)
# cgi.cpp:85:       cout << "<p style=\"color: red;\">Login failed.</p>";
	leaq	.LC37(%rip), %rax	#, tmp174
	movq	%rax, %rsi	# tmp174,
	leaq	_ZSt4cout(%rip), %rax	#, tmp175
	movq	%rax, %rdi	# tmp175,
.LEHB58:
# SUCC: 25 (FALLTHRU)
	call	_ZStlsISt11char_traitsIcEERSt13basic_ostreamIcT_ES5_PKc@PLT	#
# BLOCK 25 seq:23
# PRED: 23 24 (FALLTHRU)
.L79:
# cgi.cpp:88:     PrintForm(cgi);
	movq	-296(%rbp), %rax	# cgi, tmp176
	movq	%rax, %rdi	# tmp176,
	call	_Z9PrintFormRKN5cgicc5CgiccE	#
# cgi.cpp:90:     cout << hr().set("class", "half") << endl;
	leaq	-96(%rbp), %rax	#, tmp177
	movq	%rax, %rdi	# tmp177,
	call	_ZN5cgicc17HTMLAtomicElementINS_5hrTagEEC1Ev	#
.LEHE58:
# cgi.cpp:90:     cout << hr().set("class", "half") << endl;
	leaq	-272(%rbp), %rax	#, tmp178
	movq	%rax, %rdi	# tmp178,
	call	_ZNSaIcEC1Ev@PLT	#
	leaq	-272(%rbp), %rdx	#, tmp179
	leaq	-160(%rbp), %rax	#, tmp180
	leaq	.LC17(%rip), %rcx	#, tmp181
	movq	%rcx, %rsi	# tmp181,
	movq	%rax, %rdi	# tmp180,
.LEHB59:
# SUCC: 61 (ABNORMAL,ABNORMAL_CALL,EH) 26 (FALLTHRU)
	call	_ZNSt7__cxx1112basic_stringIcSt11char_traitsIcESaIcEEC1IS3_EEPKcRKS3_	#
.LEHE59:
# BLOCK 26 seq:24
# PRED: 25 (FALLTHRU)
# cgi.cpp:90:     cout << hr().set("class", "half") << endl;
	leaq	-281(%rbp), %rax	#, tmp182
	movq	%rax, %rdi	# tmp182,
	call	_ZNSaIcEC1Ev@PLT	#
	leaq	-281(%rbp), %rdx	#, tmp183
	leaq	-192(%rbp), %rax	#, tmp184
	leaq	.LC18(%rip), %rcx	#, tmp185
	movq	%rcx, %rsi	# tmp185,
	movq	%rax, %rdi	# tmp184,
.LEHB60:
# SUCC: 59 (ABNORMAL,ABNORMAL_CALL,EH) 27 (FALLTHRU)
	call	_ZNSt7__cxx1112basic_stringIcSt11char_traitsIcESaIcEEC1IS3_EEPKcRKS3_	#
.LEHE60:
# BLOCK 27 seq:25
# PRED: 26 (FALLTHRU)
# cgi.cpp:90:     cout << hr().set("class", "half") << endl;
	leaq	-160(%rbp), %rdx	#, tmp186
	leaq	-192(%rbp), %rcx	#, tmp187
	leaq	-96(%rbp), %rax	#, tmp188
	movq	%rcx, %rsi	# tmp187,
	movq	%rax, %rdi	# tmp188,
.LEHB61:
# SUCC: 58 (ABNORMAL,ABNORMAL_CALL,EH) 28 (FALLTHRU)
	call	_ZN5cgicc11HTMLElement3setERKNSt7__cxx1112basic_stringIcSt11char_traitsIcESaIcEEES8_@PLT	#
# BLOCK 28 seq:26
# PRED: 27 (FALLTHRU)
# cgi.cpp:90:     cout << hr().set("class", "half") << endl;
	movq	%rax, %rsi	# _13,
	leaq	_ZSt4cout(%rip), %rax	#, tmp189
	movq	%rax, %rdi	# tmp189,
# SUCC: 58 (ABNORMAL,ABNORMAL_CALL,EH) 29 (FALLTHRU)
	call	_ZN5cgicclsERSoRKNS_11MStreamableE@PLT	#
# BLOCK 29 seq:27
# PRED: 28 (FALLTHRU)
# cgi.cpp:90:     cout << hr().set("class", "half") << endl;
	movq	_ZSt4endlIcSt11char_traitsIcEERSt13basic_ostreamIT_T0_ES6_@GOTPCREL(%rip), %rdx	#, tmp191
	movq	%rdx, %rsi	# tmp190,
	movq	%rax, %rdi	# _14,
# SUCC: 58 (ABNORMAL,ABNORMAL_CALL,EH) 30 (FALLTHRU)
	call	_ZNSolsEPFRSoS_E@PLT	#
.LEHE61:
# BLOCK 30 seq:28
# PRED: 29 (FALLTHRU)
# cgi.cpp:90:     cout << hr().set("class", "half") << endl;
	leaq	-192(%rbp), %rax	#, tmp192
	movq	%rax, %rdi	# tmp192,
	call	_ZNSt7__cxx1112basic_stringIcSt11char_traitsIcESaIcEED1Ev@PLT	#
	leaq	-281(%rbp), %rax	#, tmp193
	movq	%rax, %rdi	# tmp193,
	call	_ZNSaIcED1Ev@PLT	#
	leaq	-160(%rbp), %rax	#, tmp194
	movq	%rax, %rdi	# tmp194,
	call	_ZNSt7__cxx1112basic_stringIcSt11char_traitsIcESaIcEED1Ev@PLT	#
	leaq	-272(%rbp), %rax	#, tmp195
	movq	%rax, %rdi	# tmp195,
	call	_ZNSaIcED1Ev@PLT	#
# cgi.cpp:90:     cout << hr().set("class", "half") << endl;
	leaq	-96(%rbp), %rax	#, tmp196
	movq	%rax, %rdi	# tmp196,
	call	_ZN5cgicc17HTMLAtomicElementINS_5hrTagEED1Ev	#
# cgi.cpp:91:     cout << cgicc::div().set("align", "center").set("class", "smaller") << endl;
	leaq	-96(%rbp), %rax	#, tmp197
	movq	%rax, %rdi	# tmp197,
.LEHB62:
	call	_ZN5cgicc18HTMLBooleanElementINS_6divTagEEC1Ev	#
.LEHE62:
# cgi.cpp:91:     cout << cgicc::div().set("align", "center").set("class", "smaller") << endl;
	leaq	-282(%rbp), %rax	#, tmp198
	movq	%rax, %rdi	# tmp198,
	call	_ZNSaIcEC1Ev@PLT	#
	leaq	-282(%rbp), %rdx	#, tmp199
	leaq	-224(%rbp), %rax	#, tmp200
	leaq	.LC19(%rip), %rcx	#, tmp201
	movq	%rcx, %rsi	# tmp201,
	movq	%rax, %rdi	# tmp200,
.LEHB63:
# SUCC: 72 (ABNORMAL,ABNORMAL_CALL,EH) 31 (FALLTHRU)
	call	_ZNSt7__cxx1112basic_stringIcSt11char_traitsIcESaIcEEC1IS3_EEPKcRKS3_	#
.LEHE63:
# BLOCK 31 seq:29
# PRED: 30 (FALLTHRU)
# cgi.cpp:91:     cout << cgicc::div().set("align", "center").set("class", "smaller") << endl;
	leaq	-283(%rbp), %rax	#, tmp202
	movq	%rax, %rdi	# tmp202,
	call	_ZNSaIcEC1Ev@PLT	#
	leaq	-283(%rbp), %rdx	#, tmp203
	leaq	-256(%rbp), %rax	#, tmp204
	leaq	.LC20(%rip), %rcx	#, tmp205
	movq	%rcx, %rsi	# tmp205,
	movq	%rax, %rdi	# tmp204,
.LEHB64:
# SUCC: 70 (ABNORMAL,ABNORMAL_CALL,EH) 32 (FALLTHRU)
	call	_ZNSt7__cxx1112basic_stringIcSt11char_traitsIcESaIcEEC1IS3_EEPKcRKS3_	#
.LEHE64:
# BLOCK 32 seq:30
# PRED: 31 (FALLTHRU)
# cgi.cpp:91:     cout << cgicc::div().set("align", "center").set("class", "smaller") << endl;
	leaq	-224(%rbp), %rdx	#, tmp206
	leaq	-256(%rbp), %rcx	#, tmp207
	leaq	-96(%rbp), %rax	#, tmp208
	movq	%rcx, %rsi	# tmp207,
	movq	%rax, %rdi	# tmp208,
.LEHB65:
# SUCC: 68 (ABNORMAL,ABNORMAL_CALL,EH) 33 (FALLTHRU)
	call	_ZN5cgicc11HTMLElement3setERKNSt7__cxx1112basic_stringIcSt11char_traitsIcESaIcEEES8_@PLT	#
.LEHE65:
# BLOCK 33 seq:31
# PRED: 32 (FALLTHRU)
	movq	%rax, %rbx	#, _15
# cgi.cpp:91:     cout << cgicc::div().set("align", "center").set("class", "smaller") << endl;
	leaq	-272(%rbp), %rax	#, tmp209
	movq	%rax, %rdi	# tmp209,
	call	_ZNSaIcEC1Ev@PLT	#
	leaq	-272(%rbp), %rdx	#, tmp210
	leaq	-160(%rbp), %rax	#, tmp211
	leaq	.LC21(%rip), %rcx	#, tmp212
	movq	%rcx, %rsi	# tmp212,
	movq	%rax, %rdi	# tmp211,
.LEHB66:
# SUCC: 66 (ABNORMAL,ABNORMAL_CALL,EH) 34 (FALLTHRU)
	call	_ZNSt7__cxx1112basic_stringIcSt11char_traitsIcESaIcEEC1IS3_EEPKcRKS3_	#
.LEHE66:
# BLOCK 34 seq:32
# PRED: 33 (FALLTHRU)
# cgi.cpp:91:     cout << cgicc::div().set("align", "center").set("class", "smaller") << endl;
	leaq	-281(%rbp), %rax	#, tmp213
	movq	%rax, %rdi	# tmp213,
	call	_ZNSaIcEC1Ev@PLT	#
	leaq	-281(%rbp), %rdx	#, tmp214
	leaq	-192(%rbp), %rax	#, tmp215
	leaq	.LC18(%rip), %rcx	#, tmp216
	movq	%rcx, %rsi	# tmp216,
	movq	%rax, %rdi	# tmp215,
.LEHB67:
# SUCC: 64 (ABNORMAL,ABNORMAL_CALL,EH) 35 (FALLTHRU)
	call	_ZNSt7__cxx1112basic_stringIcSt11char_traitsIcESaIcEEC1IS3_EEPKcRKS3_	#
.LEHE67:
# BLOCK 35 seq:33
# PRED: 34 (FALLTHRU)
# cgi.cpp:91:     cout << cgicc::div().set("align", "center").set("class", "smaller") << endl;
	leaq	-160(%rbp), %rdx	#, tmp217
	leaq	-192(%rbp), %rax	#, tmp218
	movq	%rax, %rsi	# tmp218,
	movq	%rbx, %rdi	# _15,
.LEHB68:
# SUCC: 63 (ABNORMAL,ABNORMAL_CALL,EH) 36 (FALLTHRU)
	call	_ZN5cgicc11HTMLElement3setERKNSt7__cxx1112basic_stringIcSt11char_traitsIcESaIcEEES8_@PLT	#
# BLOCK 36 seq:34
# PRED: 35 (FALLTHRU)
# cgi.cpp:91:     cout << cgicc::div().set("align", "center").set("class", "smaller") << endl;
	movq	%rax, %rsi	# _17,
	leaq	_ZSt4cout(%rip), %rax	#, tmp219
	movq	%rax, %rdi	# tmp219,
# SUCC: 63 (ABNORMAL,ABNORMAL_CALL,EH) 37 (FALLTHRU)
	call	_ZN5cgicclsERSoRKNS_11MStreamableE@PLT	#
# BLOCK 37 seq:35
# PRED: 36 (FALLTHRU)
# cgi.cpp:91:     cout << cgicc::div().set("align", "center").set("class", "smaller") << endl;
	movq	_ZSt4endlIcSt11char_traitsIcEERSt13basic_ostreamIT_T0_ES6_@GOTPCREL(%rip), %rdx	#, tmp221
	movq	%rdx, %rsi	# tmp220,
	movq	%rax, %rdi	# _18,
# SUCC: 63 (ABNORMAL,ABNORMAL_CALL,EH) 38 (FALLTHRU)
	call	_ZNSolsEPFRSoS_E@PLT	#
.LEHE68:
# BLOCK 38 seq:36
# PRED: 37 (FALLTHRU)
# cgi.cpp:91:     cout << cgicc::div().set("align", "center").set("class", "smaller") << endl;
	leaq	-192(%rbp), %rax	#, tmp222
	movq	%rax, %rdi	# tmp222,
	call	_ZNSt7__cxx1112basic_stringIcSt11char_traitsIcESaIcEED1Ev@PLT	#
	leaq	-281(%rbp), %rax	#, tmp223
	movq	%rax, %rdi	# tmp223,
	call	_ZNSaIcED1Ev@PLT	#
	leaq	-160(%rbp), %rax	#, tmp224
	movq	%rax, %rdi	# tmp224,
	call	_ZNSt7__cxx1112basic_stringIcSt11char_traitsIcESaIcEED1Ev@PLT	#
	leaq	-272(%rbp), %rax	#, tmp225
	movq	%rax, %rdi	# tmp225,
	call	_ZNSaIcED1Ev@PLT	#
# cgi.cpp:91:     cout << cgicc::div().set("align", "center").set("class", "smaller") << endl;
	leaq	-256(%rbp), %rax	#, tmp226
	movq	%rax, %rdi	# tmp226,
	call	_ZNSt7__cxx1112basic_stringIcSt11char_traitsIcESaIcEED1Ev@PLT	#
	leaq	-283(%rbp), %rax	#, tmp227
	movq	%rax, %rdi	# tmp227,
	call	_ZNSaIcED1Ev@PLT	#
	leaq	-224(%rbp), %rax	#, tmp228
	movq	%rax, %rdi	# tmp228,
	call	_ZNSt7__cxx1112basic_stringIcSt11char_traitsIcESaIcEED1Ev@PLT	#
	leaq	-282(%rbp), %rax	#, tmp229
	movq	%rax, %rdi	# tmp229,
	call	_ZNSaIcED1Ev@PLT	#
# cgi.cpp:91:     cout << cgicc::div().set("align", "center").set("class", "smaller") << endl;
	leaq	-96(%rbp), %rax	#, tmp230
	movq	%rax, %rdi	# tmp230,
	call	_ZN5cgicc18HTMLBooleanElementINS_6divTagEED1Ev	#
# cgi.cpp:92:     cout << "C0mf0rt Router" << endl;
	leaq	.LC22(%rip), %rax	#, tmp231
	movq	%rax, %rsi	# tmp231,
	leaq	_ZSt4cout(%rip), %rax	#, tmp232
	movq	%rax, %rdi	# tmp232,
.LEHB69:
	call	_ZStlsISt11char_traitsIcEERSt13basic_ostreamIcT_ES5_PKc@PLT	#
# cgi.cpp:92:     cout << "C0mf0rt Router" << endl;
	movq	_ZSt4endlIcSt11char_traitsIcEERSt13basic_ostreamIT_T0_ES6_@GOTPCREL(%rip), %rdx	#, tmp234
	movq	%rdx, %rsi	# tmp233,
	movq	%rax, %rdi	# _19,
	call	_ZNSolsEPFRSoS_E@PLT	#
# cgi.cpp:94:     cout << cgicc::div() << endl;
	leaq	-96(%rbp), %rax	#, tmp235
	movq	%rax, %rdi	# tmp235,
	call	_ZN5cgicc18HTMLBooleanElementINS_6divTagEEC1Ev	#
.LEHE69:
# cgi.cpp:94:     cout << cgicc::div() << endl;
	leaq	-96(%rbp), %rax	#, tmp236
	movq	%rax, %rsi	# tmp236,
	leaq	_ZSt4cout(%rip), %rax	#, tmp237
	movq	%rax, %rdi	# tmp237,
.LEHB70:
# SUCC: 74 (ABNORMAL,ABNORMAL_CALL,EH) 39 (FALLTHRU)
	call	_ZN5cgicclsERSoRKNS_11MStreamableE@PLT	#
# BLOCK 39 seq:37
# PRED: 38 (FALLTHRU)
# cgi.cpp:94:     cout << cgicc::div() << endl;
	movq	_ZSt4endlIcSt11char_traitsIcEERSt13basic_ostreamIT_T0_ES6_@GOTPCREL(%rip), %rdx	#, tmp239
	movq	%rdx, %rsi	# tmp238,
	movq	%rax, %rdi	# _20,
# SUCC: 74 (ABNORMAL,ABNORMAL_CALL,EH) 40 (FALLTHRU)
	call	_ZNSolsEPFRSoS_E@PLT	#
.LEHE70:
# BLOCK 40 seq:38
# PRED: 39 (FALLTHRU)
# cgi.cpp:94:     cout << cgicc::div() << endl;
	leaq	-96(%rbp), %rax	#, tmp240
	movq	%rax, %rdi	# tmp240,
	call	_ZN5cgicc18HTMLBooleanElementINS_6divTagEED1Ev	#
# cgi.cpp:95:     cout << body() << html() << endl;
	leaq	-160(%rbp), %rax	#, tmp241
	movq	%rax, %rdi	# tmp241,
.LEHB71:
	call	_ZN5cgicc18HTMLBooleanElementINS_7bodyTagEEC1Ev	#
.LEHE71:
# cgi.cpp:95:     cout << body() << html() << endl;
	leaq	-160(%rbp), %rax	#, tmp242
	movq	%rax, %rsi	# tmp242,
	leaq	_ZSt4cout(%rip), %rax	#, tmp243
	movq	%rax, %rdi	# tmp243,
.LEHB72:
# SUCC: 76 (ABNORMAL,ABNORMAL_CALL,EH) 41 (FALLTHRU)
	call	_ZN5cgicclsERSoRKNS_11MStreamableE@PLT	#
# BLOCK 41 seq:39
# PRED: 40 (FALLTHRU)
	movq	%rax, %rbx	#, _21
# cgi.cpp:95:     cout << body() << html() << endl;
	leaq	-96(%rbp), %rax	#, tmp244
	movq	%rax, %rdi	# tmp244,
# SUCC: 76 (ABNORMAL,ABNORMAL_CALL,EH) 42 (FALLTHRU)
	call	_ZN5cgicc18HTMLBooleanElementINS_7htmlTagEEC1Ev	#
.LEHE72:
# BLOCK 42 seq:40
# PRED: 41 (FALLTHRU)
# cgi.cpp:95:     cout << body() << html() << endl;
	leaq	-96(%rbp), %rax	#, tmp245
	movq	%rax, %rsi	# tmp245,
	movq	%rbx, %rdi	# _21,
.LEHB73:
# SUCC: 75 (ABNORMAL,ABNORMAL_CALL,EH) 43 (FALLTHRU)
	call	_ZN5cgicclsERSoRKNS_11MStreamableE@PLT	#
# BLOCK 43 seq:41
# PRED: 42 (FALLTHRU)
# cgi.cpp:95:     cout << body() << html() << endl;
	movq	_ZSt4endlIcSt11char_traitsIcEERSt13basic_ostreamIT_T0_ES6_@GOTPCREL(%rip), %rdx	#, tmp247
	movq	%rdx, %rsi	# tmp246,
	movq	%rax, %rdi	# _22,
# SUCC: 75 (ABNORMAL,ABNORMAL_CALL,EH) 44 (FALLTHRU)
	call	_ZNSolsEPFRSoS_E@PLT	#
.LEHE73:
# BLOCK 44 seq:42
# PRED: 43 (FALLTHRU)
# cgi.cpp:95:     cout << body() << html() << endl;
	leaq	-96(%rbp), %rax	#, tmp248
	movq	%rax, %rdi	# tmp248,
	call	_ZN5cgicc18HTMLBooleanElementINS_7htmlTagEED1Ev	#
# cgi.cpp:95:     cout << body() << html() << endl;
	leaq	-160(%rbp), %rax	#, tmp249
	movq	%rax, %rdi	# tmp249,
	call	_ZN5cgicc18HTMLBooleanElementINS_7bodyTagEED1Ev	#
# cgi.cpp:96: }
	nop	
	movq	-24(%rbp), %rax	# D.70263, tmp325
	subq	%fs:40, %rax	# MEM[(<address-space-1> long unsigned int *)40B], tmp325
# SUCC: 79 45 (FALLTHRU)
	je	.L102	#,
# BLOCK 45 seq:43
# PRED: 44 (FALLTHRU)
# SUCC: 78 [always] 
	jmp	.L125	#
# BLOCK 46 seq:44
# PRED: 2 (ABNORMAL,ABNORMAL_CALL,EH)
.L103:
	endbr64	
# cgi.cpp:71:     cout << HTTPHTMLHeader();
	movq	%rax, %rbx	#, tmp251
	leaq	-96(%rbp), %rax	#, tmp250
	movq	%rax, %rdi	# tmp250,
	call	_ZN5cgicc14HTTPHTMLHeaderD1Ev@PLT	#
	movq	%rbx, %rax	# tmp251, D.70250
	movq	%rax, %rdi	# D.70250,
.LEHB74:
# SUCC:
	call	_Unwind_Resume@PLT	#
# BLOCK 47 seq:45
# PRED: 3 (ABNORMAL,ABNORMAL_CALL,EH) 4 (ABNORMAL,ABNORMAL_CALL,EH)
.L104:
	endbr64	
# cgi.cpp:72:     cout << HTMLDoctype(HTMLDoctype::eStrict) << endl;
	movq	%rax, %rbx	#, tmp253
	leaq	-272(%rbp), %rax	#, tmp252
	movq	%rax, %rdi	# tmp252,
	call	_ZN5cgicc11HTMLDoctypeD1Ev@PLT	#
	movq	%rbx, %rax	# tmp253, D.70251
	movq	%rax, %rdi	# D.70251,
# SUCC:
	call	_Unwind_Resume@PLT	#
# BLOCK 48 seq:46
# PRED: 5 (ABNORMAL,ABNORMAL_CALL,EH) 6 (ABNORMAL,ABNORMAL_CALL,EH)
.L105:
	endbr64	
# cgi.cpp:73:     cout << html() << endl;
	movq	%rax, %rbx	#, tmp255
	leaq	-96(%rbp), %rax	#, tmp254
	movq	%rax, %rdi	# tmp254,
	call	_ZN5cgicc18HTMLBooleanElementINS_7htmlTagEED1Ev	#
	movq	%rbx, %rax	# tmp255, D.70252
	movq	%rax, %rdi	# D.70252,
# SUCC:
	call	_Unwind_Resume@PLT	#
# BLOCK 49 seq:47
# PRED: 7 (ABNORMAL,ABNORMAL_CALL,EH) 8 (ABNORMAL,ABNORMAL_CALL,EH)
.L106:
	endbr64	
# cgi.cpp:75:     cout << head() << endl;
	movq	%rax, %rbx	#, tmp257
	leaq	-96(%rbp), %rax	#, tmp256
	movq	%rax, %rdi	# tmp256,
	call	_ZN5cgicc18HTMLBooleanElementINS_7headTagEED1Ev	#
	movq	%rbx, %rax	# tmp257, D.70253
	movq	%rax, %rdi	# D.70253,
# SUCC:
	call	_Unwind_Resume@PLT	#
# BLOCK 50 seq:48
# PRED: 12 (ABNORMAL,ABNORMAL_CALL,EH) 13 (ABNORMAL,ABNORMAL_CALL,EH)
.L108:
	endbr64	
# cgi.cpp:76:     cout << title() << "Login" << title() << endl;
	movq	%rax, %rbx	#, tmp260
	leaq	-96(%rbp), %rax	#, tmp258
	movq	%rax, %rdi	# tmp258,
	call	_ZN5cgicc18HTMLBooleanElementINS_8titleTagEED1Ev	#
# SUCC: 52 [always] 
	jmp	.L85	#
# BLOCK 51 seq:49
# PRED: 9 (ABNORMAL,ABNORMAL_CALL,EH) 10 (ABNORMAL,ABNORMAL_CALL,EH) 11 (ABNORMAL,ABNORMAL_CALL,EH)
.L107:
	endbr64	
# SUCC: 52 [always]  (FALLTHRU)
# cgi.cpp:76:     cout << title() << "Login" << title() << endl;
	movq	%rax, %rbx	#, tmp259
# BLOCK 52 seq:50
# PRED: 51 [always]  (FALLTHRU) 50 [always] 
.L85:
# cgi.cpp:76:     cout << title() << "Login" << title() << endl;
	leaq	-160(%rbp), %rax	#, tmp263
	movq	%rax, %rdi	# tmp263,
	call	_ZN5cgicc18HTMLBooleanElementINS_8titleTagEED1Ev	#
	movq	%rbx, %rax	# tmp259, D.70254
	movq	%rax, %rdi	# D.70254,
# SUCC:
	call	_Unwind_Resume@PLT	#
# BLOCK 53 seq:51
# PRED: 14 (ABNORMAL,ABNORMAL_CALL,EH) 15 (ABNORMAL,ABNORMAL_CALL,EH)
.L109:
	endbr64	
# cgi.cpp:77:     cout << head() << endl;
	movq	%rax, %rbx	#, tmp265
	leaq	-96(%rbp), %rax	#, tmp264
	movq	%rax, %rdi	# tmp264,
	call	_ZN5cgicc18HTMLBooleanElementINS_7headTagEED1Ev	#
	movq	%rbx, %rax	# tmp265, D.70255
	movq	%rax, %rdi	# D.70255,
# SUCC:
	call	_Unwind_Resume@PLT	#
# BLOCK 54 seq:52
# PRED: 16 (ABNORMAL,ABNORMAL_CALL,EH) 17 (ABNORMAL,ABNORMAL_CALL,EH)
.L110:
	endbr64	
# cgi.cpp:79:     cout << body() << endl;
	movq	%rax, %rbx	#, tmp267
	leaq	-96(%rbp), %rax	#, tmp266
	movq	%rax, %rdi	# tmp266,
	call	_ZN5cgicc18HTMLBooleanElementINS_7bodyTagEED1Ev	#
	movq	%rbx, %rax	# tmp267, D.70256
	movq	%rax, %rdi	# D.70256,
# SUCC:
	call	_Unwind_Resume@PLT	#
# BLOCK 55 seq:53
# PRED: 21 (ABNORMAL,ABNORMAL_CALL,EH) 22 (ABNORMAL,ABNORMAL_CALL,EH)
.L112:
	endbr64	
# cgi.cpp:80:     cout << h1() << "C0mf0rt Router -- Login" << h1() << endl;
	movq	%rax, %rbx	#, tmp270
	leaq	-96(%rbp), %rax	#, tmp268
	movq	%rax, %rdi	# tmp268,
	call	_ZN5cgicc18HTMLBooleanElementINS_5h1TagEED1Ev	#
# SUCC: 57 [always] 
	jmp	.L89	#
# BLOCK 56 seq:54
# PRED: 18 (ABNORMAL,ABNORMAL_CALL,EH) 19 (ABNORMAL,ABNORMAL_CALL,EH) 20 (ABNORMAL,ABNORMAL_CALL,EH)
.L111:
	endbr64	
# SUCC: 57 [always]  (FALLTHRU)
# cgi.cpp:80:     cout << h1() << "C0mf0rt Router -- Login" << h1() << endl;
	movq	%rax, %rbx	#, tmp269
# BLOCK 57 seq:55
# PRED: 56 [always]  (FALLTHRU) 55 [always] 
.L89:
# cgi.cpp:80:     cout << h1() << "C0mf0rt Router -- Login" << h1() << endl;
	leaq	-160(%rbp), %rax	#, tmp273
	movq	%rax, %rdi	# tmp273,
	call	_ZN5cgicc18HTMLBooleanElementINS_5h1TagEED1Ev	#
	movq	%rbx, %rax	# tmp269, D.70257
	movq	%rax, %rdi	# D.70257,
# SUCC:
	call	_Unwind_Resume@PLT	#
# BLOCK 58 seq:56
# PRED: 27 (ABNORMAL,ABNORMAL_CALL,EH) 28 (ABNORMAL,ABNORMAL_CALL,EH) 29 (ABNORMAL,ABNORMAL_CALL,EH)
.L115:
	endbr64	
# cgi.cpp:90:     cout << hr().set("class", "half") << endl;
	movq	%rax, %rbx	#, tmp276
	leaq	-192(%rbp), %rax	#, tmp274
	movq	%rax, %rdi	# tmp274,
	call	_ZNSt7__cxx1112basic_stringIcSt11char_traitsIcESaIcEED1Ev@PLT	#
# SUCC: 60 [always] 
	jmp	.L91	#
# BLOCK 59 seq:57
# PRED: 26 (ABNORMAL,ABNORMAL_CALL,EH)
.L114:
	endbr64	
# SUCC: 60 [always]  (FALLTHRU)
	movq	%rax, %rbx	#, tmp275
# BLOCK 60 seq:58
# PRED: 59 [always]  (FALLTHRU) 58 [always] 
.L91:
# cgi.cpp:90:     cout << hr().set("class", "half") << endl;
	leaq	-281(%rbp), %rax	#, tmp279
	movq	%rax, %rdi	# tmp279,
	call	_ZNSaIcED1Ev@PLT	#
	leaq	-160(%rbp), %rax	#, tmp282
	movq	%rax, %rdi	# tmp282,
	call	_ZNSt7__cxx1112basic_stringIcSt11char_traitsIcESaIcEED1Ev@PLT	#
# SUCC: 62 [always] 
	jmp	.L92	#
# BLOCK 61 seq:59
# PRED: 25 (ABNORMAL,ABNORMAL_CALL,EH)
.L113:
	endbr64	
# SUCC: 62 [always]  (FALLTHRU)
# cgi.cpp:90:     cout << hr().set("class", "half") << endl;
	movq	%rax, %rbx	#, tmp283
# BLOCK 62 seq:60
# PRED: 61 [always]  (FALLTHRU) 60 [always] 
.L92:
# cgi.cpp:90:     cout << hr().set("class", "half") << endl;
	leaq	-272(%rbp), %rax	#, tmp285
	movq	%rax, %rdi	# tmp285,
	call	_ZNSaIcED1Ev@PLT	#
# cgi.cpp:90:     cout << hr().set("class", "half") << endl;
	leaq	-96(%rbp), %rax	#, tmp288
	movq	%rax, %rdi	# tmp288,
	call	_ZN5cgicc17HTMLAtomicElementINS_5hrTagEED1Ev	#
	movq	%rbx, %rax	# tmp286, D.70258
	movq	%rax, %rdi	# D.70258,
# SUCC:
	call	_Unwind_Resume@PLT	#
# BLOCK 63 seq:61
# PRED: 35 (ABNORMAL,ABNORMAL_CALL,EH) 36 (ABNORMAL,ABNORMAL_CALL,EH) 37 (ABNORMAL,ABNORMAL_CALL,EH)
.L121:
	endbr64	
# cgi.cpp:91:     cout << cgicc::div().set("align", "center").set("class", "smaller") << endl;
	movq	%rax, %rbx	#, tmp291
	leaq	-192(%rbp), %rax	#, tmp289
	movq	%rax, %rdi	# tmp289,
	call	_ZNSt7__cxx1112basic_stringIcSt11char_traitsIcESaIcEED1Ev@PLT	#
# SUCC: 65 [always] 
	jmp	.L94	#
# BLOCK 64 seq:62
# PRED: 34 (ABNORMAL,ABNORMAL_CALL,EH)
.L120:
	endbr64	
# SUCC: 65 [always]  (FALLTHRU)
	movq	%rax, %rbx	#, tmp290
# BLOCK 65 seq:63
# PRED: 64 [always]  (FALLTHRU) 63 [always] 
.L94:
# cgi.cpp:91:     cout << cgicc::div().set("align", "center").set("class", "smaller") << endl;
	leaq	-281(%rbp), %rax	#, tmp294
	movq	%rax, %rdi	# tmp294,
	call	_ZNSaIcED1Ev@PLT	#
	leaq	-160(%rbp), %rax	#, tmp297
	movq	%rax, %rdi	# tmp297,
	call	_ZNSt7__cxx1112basic_stringIcSt11char_traitsIcESaIcEED1Ev@PLT	#
# SUCC: 67 [always] 
	jmp	.L95	#
# BLOCK 66 seq:64
# PRED: 33 (ABNORMAL,ABNORMAL_CALL,EH)
.L119:
	endbr64	
# SUCC: 67 [always]  (FALLTHRU)
# cgi.cpp:91:     cout << cgicc::div().set("align", "center").set("class", "smaller") << endl;
	movq	%rax, %rbx	#, tmp298
# BLOCK 67 seq:65
# PRED: 66 [always]  (FALLTHRU) 65 [always] 
.L95:
# cgi.cpp:91:     cout << cgicc::div().set("align", "center").set("class", "smaller") << endl;
	leaq	-272(%rbp), %rax	#, tmp300
	movq	%rax, %rdi	# tmp300,
	call	_ZNSaIcED1Ev@PLT	#
# SUCC: 69 [always] 
	jmp	.L96	#
# BLOCK 68 seq:66
# PRED: 32 (ABNORMAL,ABNORMAL_CALL,EH)
.L118:
	endbr64	
# SUCC: 69 [always]  (FALLTHRU)
# cgi.cpp:91:     cout << cgicc::div().set("align", "center").set("class", "smaller") << endl;
	movq	%rax, %rbx	#, tmp301
# BLOCK 69 seq:67
# PRED: 68 [always]  (FALLTHRU) 67 [always] 
.L96:
# cgi.cpp:91:     cout << cgicc::div().set("align", "center").set("class", "smaller") << endl;
	leaq	-256(%rbp), %rax	#, tmp303
	movq	%rax, %rdi	# tmp303,
	call	_ZNSt7__cxx1112basic_stringIcSt11char_traitsIcESaIcEED1Ev@PLT	#
# SUCC: 71 [always] 
	jmp	.L97	#
# BLOCK 70 seq:68
# PRED: 31 (ABNORMAL,ABNORMAL_CALL,EH)
.L117:
	endbr64	
# SUCC: 71 [always]  (FALLTHRU)
# cgi.cpp:91:     cout << cgicc::div().set("align", "center").set("class", "smaller") << endl;
	movq	%rax, %rbx	#, tmp304
# BLOCK 71 seq:69
# PRED: 70 [always]  (FALLTHRU) 69 [always] 
.L97:
# cgi.cpp:91:     cout << cgicc::div().set("align", "center").set("class", "smaller") << endl;
	leaq	-283(%rbp), %rax	#, tmp306
	movq	%rax, %rdi	# tmp306,
	call	_ZNSaIcED1Ev@PLT	#
	leaq	-224(%rbp), %rax	#, tmp309
	movq	%rax, %rdi	# tmp309,
	call	_ZNSt7__cxx1112basic_stringIcSt11char_traitsIcESaIcEED1Ev@PLT	#
# SUCC: 73 [always] 
	jmp	.L98	#
# BLOCK 72 seq:70
# PRED: 30 (ABNORMAL,ABNORMAL_CALL,EH)
.L116:
	endbr64	
# SUCC: 73 [always]  (FALLTHRU)
# cgi.cpp:91:     cout << cgicc::div().set("align", "center").set("class", "smaller") << endl;
	movq	%rax, %rbx	#, tmp310
# BLOCK 73 seq:71
# PRED: 72 [always]  (FALLTHRU) 71 [always] 
.L98:
# cgi.cpp:91:     cout << cgicc::div().set("align", "center").set("class", "smaller") << endl;
	leaq	-282(%rbp), %rax	#, tmp312
	movq	%rax, %rdi	# tmp312,
	call	_ZNSaIcED1Ev@PLT	#
# cgi.cpp:91:     cout << cgicc::div().set("align", "center").set("class", "smaller") << endl;
	leaq	-96(%rbp), %rax	#, tmp315
	movq	%rax, %rdi	# tmp315,
	call	_ZN5cgicc18HTMLBooleanElementINS_6divTagEED1Ev	#
	movq	%rbx, %rax	# tmp313, D.70259
	movq	%rax, %rdi	# D.70259,
# SUCC:
	call	_Unwind_Resume@PLT	#
# BLOCK 74 seq:72
# PRED: 38 (ABNORMAL,ABNORMAL_CALL,EH) 39 (ABNORMAL,ABNORMAL_CALL,EH)
.L122:
	endbr64	
# cgi.cpp:94:     cout << cgicc::div() << endl;
	movq	%rax, %rbx	#, tmp317
	leaq	-96(%rbp), %rax	#, tmp316
	movq	%rax, %rdi	# tmp316,
	call	_ZN5cgicc18HTMLBooleanElementINS_6divTagEED1Ev	#
	movq	%rbx, %rax	# tmp317, D.70260
	movq	%rax, %rdi	# D.70260,
# SUCC:
	call	_Unwind_Resume@PLT	#
# BLOCK 75 seq:73
# PRED: 42 (ABNORMAL,ABNORMAL_CALL,EH) 43 (ABNORMAL,ABNORMAL_CALL,EH)
.L124:
	endbr64	
# cgi.cpp:95:     cout << body() << html() << endl;
	movq	%rax, %rbx	#, tmp320
	leaq	-96(%rbp), %rax	#, tmp318
	movq	%rax, %rdi	# tmp318,
	call	_ZN5cgicc18HTMLBooleanElementINS_7htmlTagEED1Ev	#
# SUCC: 77 [always] 
	jmp	.L101	#
# BLOCK 76 seq:74
# PRED: 40 (ABNORMAL,ABNORMAL_CALL,EH) 41 (ABNORMAL,ABNORMAL_CALL,EH)
.L123:
	endbr64	
# SUCC: 77 [always]  (FALLTHRU)
# cgi.cpp:95:     cout << body() << html() << endl;
	movq	%rax, %rbx	#, tmp319
# BLOCK 77 seq:75
# PRED: 76 [always]  (FALLTHRU) 75 [always] 
.L101:
# cgi.cpp:95:     cout << body() << html() << endl;
	leaq	-160(%rbp), %rax	#, tmp323
	movq	%rax, %rdi	# tmp323,
	call	_ZN5cgicc18HTMLBooleanElementINS_7bodyTagEED1Ev	#
	movq	%rbx, %rax	# tmp319, D.70261
	movq	%rax, %rdi	# D.70261,
# SUCC:
	call	_Unwind_Resume@PLT	#
.LEHE74:
# BLOCK 78 seq:76
# PRED: 45 [always] 
.L125:
# SUCC:
# cgi.cpp:96: }
	call	__stack_chk_fail@PLT	#
# BLOCK 79 seq:77
# PRED: 44
.L102:
	movq	-8(%rbp), %rbx	#,
	leave	
	.cfi_def_cfa 7, 8
# SUCC: EXIT [always] 
	ret	
	.cfi_endproc
.LFE2489:
	.section	.gcc_except_table
.LLSDA2489:
	.byte	0xff	# @LPStart format (omit)
	.byte	0xff	# @TType format (omit)
	.byte	0x1	# call-site format (uleb128)
	.uleb128 .LLSDACSE2489-.LLSDACSB2489	# Call-site table length
.LLSDACSB2489:
	.uleb128 .LEHB40-.LFB2489	# region 0 start
	.uleb128 .LEHE40-.LEHB40	# length
	.uleb128 0	# landing pad
	.uleb128 0	# action
	.uleb128 .LEHB41-.LFB2489	# region 1 start
	.uleb128 .LEHE41-.LEHB41	# length
	.uleb128 .L103-.LFB2489	# landing pad
	.uleb128 0	# action
	.uleb128 .LEHB42-.LFB2489	# region 2 start
	.uleb128 .LEHE42-.LEHB42	# length
	.uleb128 0	# landing pad
	.uleb128 0	# action
	.uleb128 .LEHB43-.LFB2489	# region 3 start
	.uleb128 .LEHE43-.LEHB43	# length
	.uleb128 .L104-.LFB2489	# landing pad
	.uleb128 0	# action
	.uleb128 .LEHB44-.LFB2489	# region 4 start
	.uleb128 .LEHE44-.LEHB44	# length
	.uleb128 0	# landing pad
	.uleb128 0	# action
	.uleb128 .LEHB45-.LFB2489	# region 5 start
	.uleb128 .LEHE45-.LEHB45	# length
	.uleb128 .L105-.LFB2489	# landing pad
	.uleb128 0	# action
	.uleb128 .LEHB46-.LFB2489	# region 6 start
	.uleb128 .LEHE46-.LEHB46	# length
	.uleb128 0	# landing pad
	.uleb128 0	# action
	.uleb128 .LEHB47-.LFB2489	# region 7 start
	.uleb128 .LEHE47-.LEHB47	# length
	.uleb128 .L106-.LFB2489	# landing pad
	.uleb128 0	# action
	.uleb128 .LEHB48-.LFB2489	# region 8 start
	.uleb128 .LEHE48-.LEHB48	# length
	.uleb128 0	# landing pad
	.uleb128 0	# action
	.uleb128 .LEHB49-.LFB2489	# region 9 start
	.uleb128 .LEHE49-.LEHB49	# length
	.uleb128 .L107-.LFB2489	# landing pad
	.uleb128 0	# action
	.uleb128 .LEHB50-.LFB2489	# region 10 start
	.uleb128 .LEHE50-.LEHB50	# length
	.uleb128 .L108-.LFB2489	# landing pad
	.uleb128 0	# action
	.uleb128 .LEHB51-.LFB2489	# region 11 start
	.uleb128 .LEHE51-.LEHB51	# length
	.uleb128 0	# landing pad
	.uleb128 0	# action
	.uleb128 .LEHB52-.LFB2489	# region 12 start
	.uleb128 .LEHE52-.LEHB52	# length
	.uleb128 .L109-.LFB2489	# landing pad
	.uleb128 0	# action
	.uleb128 .LEHB53-.LFB2489	# region 13 start
	.uleb128 .LEHE53-.LEHB53	# length
	.uleb128 0	# landing pad
	.uleb128 0	# action
	.uleb128 .LEHB54-.LFB2489	# region 14 start
	.uleb128 .LEHE54-.LEHB54	# length
	.uleb128 .L110-.LFB2489	# landing pad
	.uleb128 0	# action
	.uleb128 .LEHB55-.LFB2489	# region 15 start
	.uleb128 .LEHE55-.LEHB55	# length
	.uleb128 0	# landing pad
	.uleb128 0	# action
	.uleb128 .LEHB56-.LFB2489	# region 16 start
	.uleb128 .LEHE56-.LEHB56	# length
	.uleb128 .L111-.LFB2489	# landing pad
	.uleb128 0	# action
	.uleb128 .LEHB57-.LFB2489	# region 17 start
	.uleb128 .LEHE57-.LEHB57	# length
	.uleb128 .L112-.LFB2489	# landing pad
	.uleb128 0	# action
	.uleb128 .LEHB58-.LFB2489	# region 18 start
	.uleb128 .LEHE58-.LEHB58	# length
	.uleb128 0	# landing pad
	.uleb128 0	# action
	.uleb128 .LEHB59-.LFB2489	# region 19 start
	.uleb128 .LEHE59-.LEHB59	# length
	.uleb128 .L113-.LFB2489	# landing pad
	.uleb128 0	# action
	.uleb128 .LEHB60-.LFB2489	# region 20 start
	.uleb128 .LEHE60-.LEHB60	# length
	.uleb128 .L114-.LFB2489	# landing pad
	.uleb128 0	# action
	.uleb128 .LEHB61-.LFB2489	# region 21 start
	.uleb128 .LEHE61-.LEHB61	# length
	.uleb128 .L115-.LFB2489	# landing pad
	.uleb128 0	# action
	.uleb128 .LEHB62-.LFB2489	# region 22 start
	.uleb128 .LEHE62-.LEHB62	# length
	.uleb128 0	# landing pad
	.uleb128 0	# action
	.uleb128 .LEHB63-.LFB2489	# region 23 start
	.uleb128 .LEHE63-.LEHB63	# length
	.uleb128 .L116-.LFB2489	# landing pad
	.uleb128 0	# action
	.uleb128 .LEHB64-.LFB2489	# region 24 start
	.uleb128 .LEHE64-.LEHB64	# length
	.uleb128 .L117-.LFB2489	# landing pad
	.uleb128 0	# action
	.uleb128 .LEHB65-.LFB2489	# region 25 start
	.uleb128 .LEHE65-.LEHB65	# length
	.uleb128 .L118-.LFB2489	# landing pad
	.uleb128 0	# action
	.uleb128 .LEHB66-.LFB2489	# region 26 start
	.uleb128 .LEHE66-.LEHB66	# length
	.uleb128 .L119-.LFB2489	# landing pad
	.uleb128 0	# action
	.uleb128 .LEHB67-.LFB2489	# region 27 start
	.uleb128 .LEHE67-.LEHB67	# length
	.uleb128 .L120-.LFB2489	# landing pad
	.uleb128 0	# action
	.uleb128 .LEHB68-.LFB2489	# region 28 start
	.uleb128 .LEHE68-.LEHB68	# length
	.uleb128 .L121-.LFB2489	# landing pad
	.uleb128 0	# action
	.uleb128 .LEHB69-.LFB2489	# region 29 start
	.uleb128 .LEHE69-.LEHB69	# length
	.uleb128 0	# landing pad
	.uleb128 0	# action
	.uleb128 .LEHB70-.LFB2489	# region 30 start
	.uleb128 .LEHE70-.LEHB70	# length
	.uleb128 .L122-.LFB2489	# landing pad
	.uleb128 0	# action
	.uleb128 .LEHB71-.LFB2489	# region 31 start
	.uleb128 .LEHE71-.LEHB71	# length
	.uleb128 0	# landing pad
	.uleb128 0	# action
	.uleb128 .LEHB72-.LFB2489	# region 32 start
	.uleb128 .LEHE72-.LEHB72	# length
	.uleb128 .L123-.LFB2489	# landing pad
	.uleb128 0	# action
	.uleb128 .LEHB73-.LFB2489	# region 33 start
	.uleb128 .LEHE73-.LEHB73	# length
	.uleb128 .L124-.LFB2489	# landing pad
	.uleb128 0	# action
	.uleb128 .LEHB74-.LFB2489	# region 34 start
	.uleb128 .LEHE74-.LEHB74	# length
	.uleb128 0	# landing pad
	.uleb128 0	# action
.LLSDACSE2489:
	.text
	.size	_Z13ShowLoginPageRKN5cgicc5CgiccEb, .-_Z13ShowLoginPageRKN5cgicc5CgiccEb
	.section	.rodata
.LC38:
	.string	"ENABLE_DEBUG_CGI"
.LC39:
	.string	"500 test"
.LC40:
	.string	"user"
.LC41:
	.string	"password"
.LC42:
	.string	"admin"
.LC43:
	.string	"Error occurred."
	.text
	.globl	_Z7CgiMainiPPc
	.type	_Z7CgiMainiPPc, @function
_Z7CgiMainiPPc:
.LFB2490:
	.cfi_startproc
	.cfi_personality 0x9b,DW.ref.__gxx_personality_v0
	.cfi_lsda 0x1b,.LLSDA2490
	endbr64	
# BLOCK 2 seq:0
# PRED: ENTRY (FALLTHRU)
	pushq	%rbp	#
	.cfi_def_cfa_offset 16
	.cfi_offset 6, -16
	movq	%rsp, %rbp	#,
	.cfi_def_cfa_register 6
	pushq	%r14	#
	pushq	%r13	#
	pushq	%r12	#
	pushq	%rbx	#
	subq	$1072, %rsp	#,
	.cfi_offset 14, -24
	.cfi_offset 13, -32
	.cfi_offset 12, -40
	.cfi_offset 3, -48
	movl	%edi, -1092(%rbp)	# argc, argc
	movq	%rsi, -1104(%rbp)	# argv, argv
# cgi.cpp:98: void CgiMain(int argc, char *argv[]) {
	movq	%fs:40, %rax	# MEM[(<address-space-1> long unsigned int *)40B], tmp278
	movq	%rax, -40(%rbp)	# tmp278, D.70274
	xorl	%eax, %eax	# tmp278
# cgi.cpp:101:   if (getenv("ENABLE_DEBUG_CGI") && argc >= 2 && std::string(argv[1]) == "500 test") {
	movl	$0, %ebx	#, cleanup.17_21
	movl	$0, %r12d	#, cleanup.18_23
# cgi.cpp:101:   if (getenv("ENABLE_DEBUG_CGI") && argc >= 2 && std::string(argv[1]) == "500 test") {
	leaq	.LC38(%rip), %rax	#, tmp118
	movq	%rax, %rdi	# tmp118,
	call	getenv@PLT	#
# cgi.cpp:101:   if (getenv("ENABLE_DEBUG_CGI") && argc >= 2 && std::string(argv[1]) == "500 test") {
	testq	%rax, %rax	# _1
# SUCC: 3 (FALLTHRU) 7
	je	.L127	#,
# BLOCK 3 seq:1
# PRED: 2 (FALLTHRU)
# cgi.cpp:101:   if (getenv("ENABLE_DEBUG_CGI") && argc >= 2 && std::string(argv[1]) == "500 test") {
	cmpl	$1, -1092(%rbp)	#, argc
# SUCC: 4 (FALLTHRU) 7
	jle	.L127	#,
# BLOCK 4 seq:2
# PRED: 3 (FALLTHRU)
# cgi.cpp:101:   if (getenv("ENABLE_DEBUG_CGI") && argc >= 2 && std::string(argv[1]) == "500 test") {
	leaq	-1048(%rbp), %rax	#, tmp119
	movq	%rax, %rdi	# tmp119,
	call	_ZNSaIcEC1Ev@PLT	#
	movl	$1, %ebx	#, cleanup.17_21
# cgi.cpp:101:   if (getenv("ENABLE_DEBUG_CGI") && argc >= 2 && std::string(argv[1]) == "500 test") {
	movq	-1104(%rbp), %rax	# argv, tmp120
	addq	$8, %rax	#, _2
# cgi.cpp:101:   if (getenv("ENABLE_DEBUG_CGI") && argc >= 2 && std::string(argv[1]) == "500 test") {
	movq	(%rax), %rcx	# *_2, _3
	leaq	-1048(%rbp), %rdx	#, tmp121
	leaq	-912(%rbp), %rax	#, tmp122
	movq	%rcx, %rsi	# _3,
	movq	%rax, %rdi	# tmp122,
.LEHB75:
# SUCC: 51 (ABNORMAL,ABNORMAL_CALL,EH) 5 (FALLTHRU)
	call	_ZNSt7__cxx1112basic_stringIcSt11char_traitsIcESaIcEEC1IS3_EEPKcRKS3_	#
.LEHE75:
# BLOCK 5 seq:3
# PRED: 4 (FALLTHRU)
# cgi.cpp:101:   if (getenv("ENABLE_DEBUG_CGI") && argc >= 2 && std::string(argv[1]) == "500 test") {
	movl	$1, %r12d	#, cleanup.18_23
# cgi.cpp:101:   if (getenv("ENABLE_DEBUG_CGI") && argc >= 2 && std::string(argv[1]) == "500 test") {
	leaq	-912(%rbp), %rax	#, tmp123
	leaq	.LC39(%rip), %rdx	#, tmp124
	movq	%rdx, %rsi	# tmp124,
	movq	%rax, %rdi	# tmp123,
	call	_ZSteqIcSt11char_traitsIcESaIcEEbRKNSt7__cxx1112basic_stringIT_T0_T1_EEPKS5_	#
# cgi.cpp:101:   if (getenv("ENABLE_DEBUG_CGI") && argc >= 2 && std::string(argv[1]) == "500 test") {
	testb	%al, %al	# _4
# SUCC: 6 (FALLTHRU) 7
	je	.L127	#,
# BLOCK 6 seq:4
# PRED: 5 (FALLTHRU)
# cgi.cpp:101:   if (getenv("ENABLE_DEBUG_CGI") && argc >= 2 && std::string(argv[1]) == "500 test") {
	movl	$1, %r13d	#, iftmp.16_20
# SUCC: 8 [always] 
	jmp	.L128	#
# BLOCK 7 seq:5
# PRED: 2 3 5
.L127:
# SUCC: 8 (FALLTHRU)
# cgi.cpp:101:   if (getenv("ENABLE_DEBUG_CGI") && argc >= 2 && std::string(argv[1]) == "500 test") {
	movl	$0, %r13d	#, iftmp.16_20
# BLOCK 8 seq:6
# PRED: 7 (FALLTHRU) 6 [always] 
.L128:
# cgi.cpp:101:   if (getenv("ENABLE_DEBUG_CGI") && argc >= 2 && std::string(argv[1]) == "500 test") {
	testb	%r12b, %r12b	# cleanup.18_23
# SUCC: 9 (FALLTHRU) 10
	je	.L129	#,
# BLOCK 9 seq:7
# PRED: 8 (FALLTHRU)
# cgi.cpp:101:   if (getenv("ENABLE_DEBUG_CGI") && argc >= 2 && std::string(argv[1]) == "500 test") {
	leaq	-912(%rbp), %rax	#, tmp125
	movq	%rax, %rdi	# tmp125,
# SUCC: 10 (FALLTHRU)
	call	_ZNSt7__cxx1112basic_stringIcSt11char_traitsIcESaIcEED1Ev@PLT	#
# BLOCK 10 seq:8
# PRED: 8 9 (FALLTHRU)
.L129:
# cgi.cpp:101:   if (getenv("ENABLE_DEBUG_CGI") && argc >= 2 && std::string(argv[1]) == "500 test") {
	testb	%bl, %bl	# cleanup.17_21
# SUCC: 11 (FALLTHRU) 12
	je	.L130	#,
# BLOCK 11 seq:9
# PRED: 10 (FALLTHRU)
# cgi.cpp:101:   if (getenv("ENABLE_DEBUG_CGI") && argc >= 2 && std::string(argv[1]) == "500 test") {
	leaq	-1048(%rbp), %rax	#, tmp126
	movq	%rax, %rdi	# tmp126,
# SUCC: 12 (FALLTHRU)
	call	_ZNSaIcED1Ev@PLT	#
# BLOCK 12 seq:10
# PRED: 10 11 (FALLTHRU)
.L130:
# cgi.cpp:101:   if (getenv("ENABLE_DEBUG_CGI") && argc >= 2 && std::string(argv[1]) == "500 test") {
	testb	%r13b, %r13b	# iftmp.16_20
# SUCC: 13 (FALLTHRU) 14
	je	.L131	#,
# BLOCK 13 seq:11
# PRED: 12 (FALLTHRU)
# cgi.cpp:102:     throw 1;
	movl	$4, %edi	#,
	call	__cxa_allocate_exception@PLT	#
# cgi.cpp:102:     throw 1;
	movl	$1, (%rax)	#, MEM[(int *)_228]
# cgi.cpp:102:     throw 1;
	movl	$0, %edx	#,
	leaq	_ZTIi(%rip), %rcx	#, tmp128
	movq	%rcx, %rsi	# tmp128,
	movq	%rax, %rdi	# _228,
.LEHB76:
# SUCC:
.cfi_escape 22, 7, 28, 19, 12, 85, 168, 64, 0, 12, 202, 11, 90, 0, 12, 160, 17, 65, 0, 8, 0, 12, 96, 89, 64, 0, 87, 10, 80, 9, 28
	call	__cxa_throw@PLT	#
.cfi_escape 22, 7, 217, 1, 19, 87, 10, 120, 3, 34, 6, 8, 1, 20, 148, 1, 18, 8, 0, 41, 40, 9, 0, 30, 22, 8, 1, 34, 22, 47, 237, 255, 19, 14, 0, 0, 0, 0, 1, 0, 0, 0, 29, 12, 206, 250, 237, 254, 46, 40, 26, 0, 19, 12, 85, 168, 64, 0, 12, 202, 11, 90, 0, 12, 160, 17, 65, 0, 8, 0, 12, 96, 89, 64, 0, 47, 138, 0, 19, 12, 85, 168, 64, 0, 8, 73, 12, 160, 17, 65, 0, 12, 128, 168, 95, 0, 12, 176, 172, 78, 0, 12, 85, 168, 64, 0, 8, 100, 12, 160, 17, 65, 0, 12, 128, 168, 95, 0, 12, 176, 172, 78, 0, 12, 85, 168, 64, 0, 8, 105, 12, 160, 17, 65, 0, 12, 128, 168, 95, 0, 12, 176, 172, 78, 0, 12, 85, 168, 64, 0, 8, 111, 12, 160, 17, 65, 0, 12, 128, 168, 95, 0, 12, 176, 172, 78, 0, 12, 85, 168, 64, 0, 8, 116, 12, 160, 17, 65, 0, 12, 128, 168, 95, 0, 12, 176, 172, 78, 0, 12, 85, 168, 64, 0, 8, 10, 12, 160, 17, 65, 0, 12, 128, 168, 95, 0, 12, 176, 172, 78, 0, 12, 48, 169, 77, 0, 87, 10, 48, 9, 28
.LEHE76:
# BLOCK 14 seq:12
# PRED: 12
.L131:
# cgi.cpp:106:     Cgicc cgi;
	leaq	-912(%rbp), %rax	#, tmp129
	movl	$0, %esi	#,
	movq	%rax, %rdi	# tmp129,
.LEHB77:
# SUCC: 69 (ABNORMAL,ABNORMAL_CALL,EH) 15 (FALLTHRU)
	call	_ZN5cgicc5CgiccC1EPNS_8CgiInputE@PLT	#
.LEHE77:
# BLOCK 15 seq:13
# PRED: 14 (FALLTHRU)
# cgi.cpp:108:     for (const auto &cookie : cgi.getEnvironment().getCookieList()) {
	leaq	-912(%rbp), %rax	#, tmp130
	movq	%rax, %rdi	# tmp130,
	call	_ZNK5cgicc5Cgicc14getEnvironmentEv@PLT	#
# cgi.cpp:108:     for (const auto &cookie : cgi.getEnvironment().getCookieList()) {
	movq	%rax, %rdi	# _5,
	call	_ZNK5cgicc14CgiEnvironment13getCookieListEv@PLT	#
	movq	%rax, -1040(%rbp)	# tmp131, __for_range
# cgi.cpp:108:     for (const auto &cookie : cgi.getEnvironment().getCookieList()) {
	movq	-1040(%rbp), %rax	# __for_range, tmp132
	movq	%rax, %rdi	# tmp132,
	call	_ZNKSt6vectorIN5cgicc10HTTPCookieESaIS1_EE5beginEv	#
	movq	%rax, -1056(%rbp)	# tmp134, MEM[(struct __normal_iterator *)_255]
	movq	-1040(%rbp), %rax	# __for_range, tmp135
	movq	%rax, %rdi	# tmp135,
	call	_ZNKSt6vectorIN5cgicc10HTTPCookieESaIS1_EE3endEv	#
	movq	%rax, -1048(%rbp)	# tmp137, MEM[(struct __normal_iterator *)_254]
# SUCC: 24 [always] 
# cgi.cpp:108:     for (const auto &cookie : cgi.getEnvironment().getCookieList()) {
	jmp	.L132	#
# BLOCK 16 seq:14
# PRED: 24
.L136:
# cgi.cpp:108:     for (const auto &cookie : cgi.getEnvironment().getCookieList()) {
	leaq	-1056(%rbp), %rax	#, tmp138
	movq	%rax, %rdi	# tmp138,
	call	_ZNK9__gnu_cxx17__normal_iteratorIPKN5cgicc10HTTPCookieESt6vectorIS2_SaIS2_EEEdeEv	#
	movq	%rax, -1032(%rbp)	# tmp139, cookie
# cgi.cpp:109:       if (cookie.getName() != "loggedin") continue;
	leaq	-1008(%rbp), %rax	#, tmp140
	movq	-1032(%rbp), %rdx	# cookie, tmp141
	movq	%rdx, %rsi	# tmp141,
	movq	%rax, %rdi	# tmp140,
.LEHB78:
# SUCC: 67 (ABNORMAL,ABNORMAL_CALL,EH) 17 (FALLTHRU)
	call	_ZNK5cgicc10HTTPCookie7getNameB5cxx11Ev@PLT	#
# BLOCK 17 seq:15
# PRED: 16 (FALLTHRU)
# cgi.cpp:109:       if (cookie.getName() != "loggedin") continue;
	leaq	-1008(%rbp), %rax	#, tmp142
	leaq	.LC13(%rip), %rdx	#, tmp143
	movq	%rdx, %rsi	# tmp143,
	movq	%rax, %rdi	# tmp142,
	call	_ZStneIcSt11char_traitsIcESaIcEEbRKNSt7__cxx1112basic_stringIT_T0_T1_EEPKS5_	#
	movl	%eax, %ebx	#, retval.19_159
# cgi.cpp:109:       if (cookie.getName() != "loggedin") continue;
	leaq	-1008(%rbp), %rax	#, tmp144
	movq	%rax, %rdi	# tmp144,
	call	_ZNSt7__cxx1112basic_stringIcSt11char_traitsIcESaIcEED1Ev@PLT	#
# cgi.cpp:109:       if (cookie.getName() != "loggedin") continue;
	testb	%bl, %bl	# retval.19_159
# SUCC: 22 18 (FALLTHRU)
	jne	.L181	#,
# BLOCK 18 seq:16
# PRED: 17 (FALLTHRU)
# cgi.cpp:111:       if (cookie.getValue() == "1") {
	leaq	-976(%rbp), %rax	#, tmp145
	movq	-1032(%rbp), %rdx	# cookie, tmp146
	movq	%rdx, %rsi	# tmp146,
	movq	%rax, %rdi	# tmp145,
# SUCC: 67 (ABNORMAL,ABNORMAL_CALL,EH) 19 (FALLTHRU)
	call	_ZNK5cgicc10HTTPCookie8getValueB5cxx11Ev@PLT	#
# BLOCK 19 seq:17
# PRED: 18 (FALLTHRU)
# cgi.cpp:111:       if (cookie.getValue() == "1") {
	leaq	-976(%rbp), %rax	#, tmp147
	leaq	.LC12(%rip), %rdx	#, tmp148
	movq	%rdx, %rsi	# tmp148,
	movq	%rax, %rdi	# tmp147,
	call	_ZSteqIcSt11char_traitsIcESaIcEEbRKNSt7__cxx1112basic_stringIT_T0_T1_EEPKS5_	#
	movl	%eax, %ebx	#, retval.20_164
# cgi.cpp:111:       if (cookie.getValue() == "1") {
	leaq	-976(%rbp), %rax	#, tmp149
	movq	%rax, %rdi	# tmp149,
	call	_ZNSt7__cxx1112basic_stringIcSt11char_traitsIcESaIcEED1Ev@PLT	#
# cgi.cpp:111:       if (cookie.getValue() == "1") {
	testb	%bl, %bl	# retval.20_164
# SUCC: 20 (FALLTHRU) 23
	je	.L134	#,
# BLOCK 20 seq:18
# PRED: 19 (FALLTHRU)
# cgi.cpp:112:         ShowSettingPage(cgi);
	leaq	-912(%rbp), %rax	#, tmp150
	movq	%rax, %rdi	# tmp150,
# SUCC: 67 (ABNORMAL,ABNORMAL_CALL,EH) 21 (FALLTHRU)
	call	_Z15ShowSettingPageRKN5cgicc5CgiccE	#
.LEHE78:
# BLOCK 21 seq:19
# PRED: 20 (FALLTHRU)
# SUCC: 50 [always] 
# cgi.cpp:113:         return;
	jmp	.L135	#
# BLOCK 22 seq:20
# PRED: 17
.L181:
# SUCC: 23 [always]  (FALLTHRU)
# cgi.cpp:109:       if (cookie.getName() != "loggedin") continue;
	nop	
# BLOCK 23 seq:21
# PRED: 22 [always]  (FALLTHRU) 19
.L134:
# cgi.cpp:108:     for (const auto &cookie : cgi.getEnvironment().getCookieList()) {
	leaq	-1056(%rbp), %rax	#, tmp151
	movq	%rax, %rdi	# tmp151,
# SUCC: 24 (FALLTHRU,DFS_BACK)
	call	_ZN9__gnu_cxx17__normal_iteratorIPKN5cgicc10HTTPCookieESt6vectorIS2_SaIS2_EEEppEv	#
# BLOCK 24 seq:22
# PRED: 23 (FALLTHRU,DFS_BACK) 15 [always] 
.L132:
# cgi.cpp:108:     for (const auto &cookie : cgi.getEnvironment().getCookieList()) {
	leaq	-1048(%rbp), %rdx	#, tmp152
	leaq	-1056(%rbp), %rax	#, tmp153
	movq	%rdx, %rsi	# tmp152,
	movq	%rax, %rdi	# tmp153,
	call	_ZN9__gnu_cxxneIPKN5cgicc10HTTPCookieESt6vectorIS2_SaIS2_EEEEbRKNS_17__normal_iteratorIT_T0_EESD_	#
	testb	%al, %al	# retval.21_90
# SUCC: 16 25 (FALLTHRU)
	jne	.L136	#,
# BLOCK 25 seq:23
# PRED: 24 (FALLTHRU)
# cgi.cpp:117:     const_form_iterator user = cgi.getElement("user");
	leaq	-1048(%rbp), %rax	#, tmp154
	movq	%rax, %rdi	# tmp154,
	call	_ZNSaIcEC1Ev@PLT	#
	leaq	-1048(%rbp), %rdx	#, tmp155
	leaq	-944(%rbp), %rax	#, tmp156
	leaq	.LC40(%rip), %rcx	#, tmp157
	movq	%rcx, %rsi	# tmp157,
	movq	%rax, %rdi	# tmp156,
.LEHB79:
# SUCC: 57 (ABNORMAL,ABNORMAL_CALL,EH) 26 (FALLTHRU)
	call	_ZNSt7__cxx1112basic_stringIcSt11char_traitsIcESaIcEEC1IS3_EEPKcRKS3_	#
.LEHE79:
# BLOCK 26 seq:24
# PRED: 25 (FALLTHRU)
# cgi.cpp:117:     const_form_iterator user = cgi.getElement("user");
	leaq	-944(%rbp), %rdx	#, tmp158
	leaq	-912(%rbp), %rax	#, tmp159
	movq	%rdx, %rsi	# tmp158,
	movq	%rax, %rdi	# tmp159,
.LEHB80:
# SUCC: 56 (ABNORMAL,ABNORMAL_CALL,EH) 27 (FALLTHRU)
	call	_ZN5cgicc5Cgicc10getElementERKNSt7__cxx1112basic_stringIcSt11char_traitsIcESaIcEEE@PLT	#
.LEHE80:
# BLOCK 27 seq:25
# PRED: 26 (FALLTHRU)
	movq	%rax, -1056(%rbp)	# tmp161, MEM[(struct __normal_iterator *)_255]
# cgi.cpp:117:     const_form_iterator user = cgi.getElement("user");
	leaq	-1056(%rbp), %rdx	#, tmp162
	leaq	-1072(%rbp), %rax	#, tmp163
	movq	%rdx, %rsi	# tmp162,
	movq	%rax, %rdi	# tmp163,
	call	_ZN9__gnu_cxx17__normal_iteratorIPKN5cgicc9FormEntryESt6vectorIS2_SaIS2_EEEC1IPS2_EERKNS0_IT_NS_11__enable_ifIXsrSt10__are_sameISB_SA_E7__valueES7_E6__typeEEE	#
# cgi.cpp:117:     const_form_iterator user = cgi.getElement("user");
	leaq	-944(%rbp), %rax	#, tmp164
	movq	%rax, %rdi	# tmp164,
	call	_ZNSt7__cxx1112basic_stringIcSt11char_traitsIcESaIcEED1Ev@PLT	#
	leaq	-1048(%rbp), %rax	#, tmp165
	movq	%rax, %rdi	# tmp165,
	call	_ZNSaIcED1Ev@PLT	#
# cgi.cpp:118:     const_form_iterator password = cgi.getElement("password");
	leaq	-1056(%rbp), %rax	#, tmp166
	movq	%rax, %rdi	# tmp166,
	call	_ZNSaIcEC1Ev@PLT	#
	leaq	-1056(%rbp), %rdx	#, tmp167
	leaq	-944(%rbp), %rax	#, tmp168
	leaq	.LC41(%rip), %rcx	#, tmp169
	movq	%rcx, %rsi	# tmp169,
	movq	%rax, %rdi	# tmp168,
.LEHB81:
# SUCC: 60 (ABNORMAL,ABNORMAL_CALL,EH) 28 (FALLTHRU)
	call	_ZNSt7__cxx1112basic_stringIcSt11char_traitsIcESaIcEEC1IS3_EEPKcRKS3_	#
.LEHE81:
# BLOCK 28 seq:26
# PRED: 27 (FALLTHRU)
	leaq	-944(%rbp), %rdx	#, tmp170
	leaq	-912(%rbp), %rax	#, tmp171
	movq	%rdx, %rsi	# tmp170,
	movq	%rax, %rdi	# tmp171,
.LEHB82:
# SUCC: 59 (ABNORMAL,ABNORMAL_CALL,EH) 29 (FALLTHRU)
	call	_ZN5cgicc5Cgicc10getElementERKNSt7__cxx1112basic_stringIcSt11char_traitsIcESaIcEEE@PLT	#
.LEHE82:
# BLOCK 29 seq:27
# PRED: 28 (FALLTHRU)
	movq	%rax, -1048(%rbp)	# tmp173, MEM[(struct __normal_iterator *)_254]
# cgi.cpp:118:     const_form_iterator password = cgi.getElement("password");
	leaq	-1048(%rbp), %rdx	#, tmp174
	leaq	-1064(%rbp), %rax	#, tmp175
	movq	%rdx, %rsi	# tmp174,
	movq	%rax, %rdi	# tmp175,
	call	_ZN9__gnu_cxx17__normal_iteratorIPKN5cgicc9FormEntryESt6vectorIS2_SaIS2_EEEC1IPS2_EERKNS0_IT_NS_11__enable_ifIXsrSt10__are_sameISB_SA_E7__valueES7_E6__typeEEE	#
# cgi.cpp:118:     const_form_iterator password = cgi.getElement("password");
	leaq	-944(%rbp), %rax	#, tmp176
	movq	%rax, %rdi	# tmp176,
	call	_ZNSt7__cxx1112basic_stringIcSt11char_traitsIcESaIcEED1Ev@PLT	#
	leaq	-1056(%rbp), %rax	#, tmp177
	movq	%rax, %rdi	# tmp177,
	call	_ZNSaIcED1Ev@PLT	#
# cgi.cpp:120:     bool login_failed = false;
	movb	$0, -1073(%rbp)	#, login_failed
# cgi.cpp:121:     if (user != cgi.getElements().end() && password != cgi.getElements().end()) {
	leaq	-912(%rbp), %rax	#, tmp178
	movq	%rax, %rdi	# tmp178,
	call	_ZNK5cgicc5Cgicc11getElementsEv@PLT	#
# cgi.cpp:121:     if (user != cgi.getElements().end() && password != cgi.getElements().end()) {
	movq	%rax, %rdi	# _6,
	call	_ZNKSt6vectorIN5cgicc9FormEntryESaIS1_EE3endEv	#
	movq	%rax, -1056(%rbp)	# tmp180, MEM[(struct __normal_iterator *)_255]
# cgi.cpp:121:     if (user != cgi.getElements().end() && password != cgi.getElements().end()) {
	leaq	-1056(%rbp), %rdx	#, tmp181
	leaq	-1072(%rbp), %rax	#, tmp182
	movq	%rdx, %rsi	# tmp181,
	movq	%rax, %rdi	# tmp182,
	call	_ZN9__gnu_cxxneIPKN5cgicc9FormEntryESt6vectorIS2_SaIS2_EEEEbRKNS_17__normal_iteratorIT_T0_EESD_	#
# cgi.cpp:121:     if (user != cgi.getElements().end() && password != cgi.getElements().end()) {
	testb	%al, %al	# _7
# SUCC: 30 (FALLTHRU) 32
	je	.L137	#,
# BLOCK 30 seq:28
# PRED: 29 (FALLTHRU)
# cgi.cpp:121:     if (user != cgi.getElements().end() && password != cgi.getElements().end()) {
	leaq	-912(%rbp), %rax	#, tmp183
	movq	%rax, %rdi	# tmp183,
	call	_ZNK5cgicc5Cgicc11getElementsEv@PLT	#
# cgi.cpp:121:     if (user != cgi.getElements().end() && password != cgi.getElements().end()) {
	movq	%rax, %rdi	# _8,
	call	_ZNKSt6vectorIN5cgicc9FormEntryESaIS1_EE3endEv	#
	movq	%rax, -1048(%rbp)	# tmp185, MEM[(struct __normal_iterator *)_254]
# cgi.cpp:121:     if (user != cgi.getElements().end() && password != cgi.getElements().end()) {
	leaq	-1048(%rbp), %rdx	#, tmp186
	leaq	-1064(%rbp), %rax	#, tmp187
	movq	%rdx, %rsi	# tmp186,
	movq	%rax, %rdi	# tmp187,
	call	_ZN9__gnu_cxxneIPKN5cgicc9FormEntryESt6vectorIS2_SaIS2_EEEEbRKNS_17__normal_iteratorIT_T0_EESD_	#
# cgi.cpp:121:     if (user != cgi.getElements().end() && password != cgi.getElements().end()) {
	testb	%al, %al	# _9
# SUCC: 31 (FALLTHRU) 32
	je	.L137	#,
# BLOCK 31 seq:29
# PRED: 30 (FALLTHRU)
# cgi.cpp:121:     if (user != cgi.getElements().end() && password != cgi.getElements().end()) {
	movl	$1, %eax	#, iftmp.23_25
# SUCC: 33 [always] 
	jmp	.L138	#
# BLOCK 32 seq:30
# PRED: 29 30
.L137:
# SUCC: 33 (FALLTHRU)
# cgi.cpp:121:     if (user != cgi.getElements().end() && password != cgi.getElements().end()) {
	movl	$0, %eax	#, iftmp.23_25
# BLOCK 33 seq:31
# PRED: 32 (FALLTHRU) 31 [always] 
.L138:
# cgi.cpp:121:     if (user != cgi.getElements().end() && password != cgi.getElements().end()) {
	testb	%al, %al	# iftmp.23_25
# SUCC: 34 (FALLTHRU) 48
	je	.L139	#,
# BLOCK 34 seq:32
# PRED: 33 (FALLTHRU)
# cgi.cpp:122:       if (user->getValue() == "admin" && password->getValue() == "admin") {
	movl	$0, %ebx	#, cleanup.26_27
	movl	$0, %r12d	#, cleanup.27_28
# cgi.cpp:122:       if (user->getValue() == "admin" && password->getValue() == "admin") {
	leaq	-1072(%rbp), %rax	#, tmp188
	movq	%rax, %rdi	# tmp188,
	call	_ZNK9__gnu_cxx17__normal_iteratorIPKN5cgicc9FormEntryESt6vectorIS2_SaIS2_EEEptEv	#
	movq	%rax, %rdx	#, _10
	leaq	-976(%rbp), %rax	#, tmp189
	movq	%rdx, %rsi	# _10,
	movq	%rax, %rdi	# tmp189,
.LEHB83:
# SUCC: 62 (ABNORMAL,ABNORMAL_CALL,EH) 35 (FALLTHRU)
	call	_ZNK5cgicc9FormEntry8getValueB5cxx11Ev@PLT	#
# BLOCK 35 seq:33
# PRED: 34 (FALLTHRU)
# cgi.cpp:122:       if (user->getValue() == "admin" && password->getValue() == "admin") {
	movl	$1, %ebx	#, cleanup.26_27
# cgi.cpp:122:       if (user->getValue() == "admin" && password->getValue() == "admin") {
	leaq	-976(%rbp), %rax	#, tmp190
	leaq	.LC42(%rip), %rdx	#, tmp191
	movq	%rdx, %rsi	# tmp191,
	movq	%rax, %rdi	# tmp190,
	call	_ZSteqIcSt11char_traitsIcESaIcEEbRKNSt7__cxx1112basic_stringIT_T0_T1_EEPKS5_	#
# cgi.cpp:122:       if (user->getValue() == "admin" && password->getValue() == "admin") {
	testb	%al, %al	# _11
# SUCC: 36 (FALLTHRU) 39
	je	.L140	#,
# BLOCK 36 seq:34
# PRED: 35 (FALLTHRU)
# cgi.cpp:122:       if (user->getValue() == "admin" && password->getValue() == "admin") {
	leaq	-1064(%rbp), %rax	#, tmp192
	movq	%rax, %rdi	# tmp192,
	call	_ZNK9__gnu_cxx17__normal_iteratorIPKN5cgicc9FormEntryESt6vectorIS2_SaIS2_EEEptEv	#
	movq	%rax, %rdx	#, _12
	leaq	-944(%rbp), %rax	#, tmp193
	movq	%rdx, %rsi	# _12,
	movq	%rax, %rdi	# tmp193,
# SUCC: 62 (ABNORMAL,ABNORMAL_CALL,EH) 37 (FALLTHRU)
	call	_ZNK5cgicc9FormEntry8getValueB5cxx11Ev@PLT	#
.LEHE83:
# BLOCK 37 seq:35
# PRED: 36 (FALLTHRU)
# cgi.cpp:122:       if (user->getValue() == "admin" && password->getValue() == "admin") {
	movl	$1, %r12d	#, cleanup.27_28
# cgi.cpp:122:       if (user->getValue() == "admin" && password->getValue() == "admin") {
	leaq	-944(%rbp), %rax	#, tmp194
	leaq	.LC42(%rip), %rdx	#, tmp195
	movq	%rdx, %rsi	# tmp195,
	movq	%rax, %rdi	# tmp194,
	call	_ZSteqIcSt11char_traitsIcESaIcEEbRKNSt7__cxx1112basic_stringIT_T0_T1_EEPKS5_	#
# cgi.cpp:122:       if (user->getValue() == "admin" && password->getValue() == "admin") {
	testb	%al, %al	# _13
# SUCC: 38 (FALLTHRU) 39
	je	.L140	#,
# BLOCK 38 seq:36
# PRED: 37 (FALLTHRU)
# cgi.cpp:122:       if (user->getValue() == "admin" && password->getValue() == "admin") {
	movl	$1, %r13d	#, iftmp.25_26
# SUCC: 40 [always] 
	jmp	.L141	#
# BLOCK 39 seq:37
# PRED: 35 37
.L140:
# SUCC: 40 (FALLTHRU)
# cgi.cpp:122:       if (user->getValue() == "admin" && password->getValue() == "admin") {
	movl	$0, %r13d	#, iftmp.25_26
# BLOCK 40 seq:38
# PRED: 39 (FALLTHRU) 38 [always] 
.L141:
# cgi.cpp:122:       if (user->getValue() == "admin" && password->getValue() == "admin") {
	testb	%r12b, %r12b	# cleanup.27_28
# SUCC: 41 (FALLTHRU) 42
	je	.L142	#,
# BLOCK 41 seq:39
# PRED: 40 (FALLTHRU)
# cgi.cpp:122:       if (user->getValue() == "admin" && password->getValue() == "admin") {
	leaq	-944(%rbp), %rax	#, tmp196
	movq	%rax, %rdi	# tmp196,
# SUCC: 42 (FALLTHRU)
	call	_ZNSt7__cxx1112basic_stringIcSt11char_traitsIcESaIcEED1Ev@PLT	#
# BLOCK 42 seq:40
# PRED: 40 41 (FALLTHRU)
.L142:
# cgi.cpp:122:       if (user->getValue() == "admin" && password->getValue() == "admin") {
	testb	%bl, %bl	# cleanup.26_27
# SUCC: 43 (FALLTHRU) 44
	je	.L143	#,
# BLOCK 43 seq:41
# PRED: 42 (FALLTHRU)
# cgi.cpp:122:       if (user->getValue() == "admin" && password->getValue() == "admin") {
	leaq	-976(%rbp), %rax	#, tmp197
	movq	%rax, %rdi	# tmp197,
# SUCC: 44 (FALLTHRU)
	call	_ZNSt7__cxx1112basic_stringIcSt11char_traitsIcESaIcEED1Ev@PLT	#
# BLOCK 44 seq:42
# PRED: 42 43 (FALLTHRU)
.L143:
# cgi.cpp:122:       if (user->getValue() == "admin" && password->getValue() == "admin") {
	testb	%r13b, %r13b	# iftmp.25_26
# SUCC: 45 (FALLTHRU) 47
	je	.L144	#,
# BLOCK 45 seq:43
# PRED: 44 (FALLTHRU)
# cgi.cpp:123:         ShowSettingPage(cgi);
	leaq	-912(%rbp), %rax	#, tmp198
	movq	%rax, %rdi	# tmp198,
.LEHB84:
# SUCC: 67 (ABNORMAL,ABNORMAL_CALL,EH) 46 (FALLTHRU)
	call	_Z15ShowSettingPageRKN5cgicc5CgiccE	#
# BLOCK 46 seq:44
# PRED: 45 (FALLTHRU)
# SUCC: 50 [always] 
# cgi.cpp:124:         return;
	jmp	.L135	#
# BLOCK 47 seq:45
# PRED: 44
.L144:
# SUCC: 48 (FALLTHRU)
# cgi.cpp:127:       login_failed = true;
	movb	$1, -1073(%rbp)	#, login_failed
# BLOCK 48 seq:46
# PRED: 33 47 (FALLTHRU)
.L139:
# cgi.cpp:130:     ShowLoginPage(cgi, login_failed);
	movzbl	-1073(%rbp), %edx	# login_failed, _14
	leaq	-912(%rbp), %rax	#, tmp199
	movl	%edx, %esi	# _14,
	movq	%rax, %rdi	# tmp199,
# SUCC: 67 (ABNORMAL,ABNORMAL_CALL,EH) 49 (FALLTHRU)
	call	_Z13ShowLoginPageRKN5cgicc5CgiccEb	#
.LEHE84:
# BLOCK 49 seq:47
# PRED: 48 (FALLTHRU)
# SUCC: 50 [always]  (FALLTHRU)
# cgi.cpp:131:     return;
	nop	
# BLOCK 50 seq:48
# PRED: 49 [always]  (FALLTHRU) 21 [always]  46 [always] 
.L135:
# cgi.cpp:132:   } catch(const std::runtime_error& e) {
	leaq	-912(%rbp), %rax	#, tmp200
	movq	%rax, %rdi	# tmp200,
	call	_ZN5cgicc5CgiccD1Ev@PLT	#
# SUCC: 93 [always] 
# cgi.cpp:139: }
	jmp	.L126	#
# BLOCK 51 seq:49
# PRED: 4 (ABNORMAL,ABNORMAL_CALL,EH)
.L167:
	endbr64	
# cgi.cpp:101:   if (getenv("ENABLE_DEBUG_CGI") && argc >= 2 && std::string(argv[1]) == "500 test") {
	movq	%rax, %r13	#, tmp203
	testb	%r12b, %r12b	# cleanup.18_23
# SUCC: 52 (FALLTHRU) 53
	je	.L147	#,
# BLOCK 52 seq:50
# PRED: 51 (FALLTHRU)
# cgi.cpp:101:   if (getenv("ENABLE_DEBUG_CGI") && argc >= 2 && std::string(argv[1]) == "500 test") {
	leaq	-912(%rbp), %rax	#, tmp201
	movq	%rax, %rdi	# tmp201,
# SUCC: 53 (FALLTHRU)
	call	_ZNSt7__cxx1112basic_stringIcSt11char_traitsIcESaIcEED1Ev@PLT	#
# BLOCK 53 seq:51
# PRED: 51 52 (FALLTHRU)
.L147:
	movq	%r13, %r12	# tmp203, tmp202
# cgi.cpp:101:   if (getenv("ENABLE_DEBUG_CGI") && argc >= 2 && std::string(argv[1]) == "500 test") {
	testb	%bl, %bl	# cleanup.17_21
# SUCC: 54 (FALLTHRU) 55
	je	.L148	#,
# BLOCK 54 seq:52
# PRED: 53 (FALLTHRU)
# cgi.cpp:101:   if (getenv("ENABLE_DEBUG_CGI") && argc >= 2 && std::string(argv[1]) == "500 test") {
	leaq	-1048(%rbp), %rax	#, tmp206
	movq	%rax, %rdi	# tmp206,
# SUCC: 55 (FALLTHRU)
	call	_ZNSaIcED1Ev@PLT	#
# BLOCK 55 seq:53
# PRED: 53 54 (FALLTHRU)
.L148:
	movq	%r12, %rax	# tmp202, D.70269
	movq	%rax, %rdi	# D.70269,
.LEHB85:
# SUCC:
	call	_Unwind_Resume@PLT	#
# BLOCK 56 seq:54
# PRED: 26 (ABNORMAL,ABNORMAL_CALL,EH)
.L171:
	endbr64	
# cgi.cpp:117:     const_form_iterator user = cgi.getElement("user");
	movq	%rax, %r12	#, tmp209
	movq	%rdx, %rbx	#, tmp211
	leaq	-944(%rbp), %rax	#, tmp207
	movq	%rax, %rdi	# tmp207,
	call	_ZNSt7__cxx1112basic_stringIcSt11char_traitsIcESaIcEED1Ev@PLT	#
# SUCC: 58 [always] 
	jmp	.L150	#
# BLOCK 57 seq:55
# PRED: 25 (ABNORMAL,ABNORMAL_CALL,EH)
.L170:
	endbr64	
	movq	%rax, %r12	#, tmp208
# SUCC: 58 [always]  (FALLTHRU)
	movq	%rdx, %rbx	#, tmp210
# BLOCK 58 seq:56
# PRED: 57 [always]  (FALLTHRU) 56 [always] 
.L150:
# cgi.cpp:117:     const_form_iterator user = cgi.getElement("user");
	leaq	-1048(%rbp), %rax	#, tmp212
	movq	%rax, %rdi	# tmp212,
	call	_ZNSaIcED1Ev@PLT	#
# SUCC: 68 [always] 
	jmp	.L151	#
# BLOCK 59 seq:57
# PRED: 28 (ABNORMAL,ABNORMAL_CALL,EH)
.L173:
	endbr64	
# cgi.cpp:118:     const_form_iterator password = cgi.getElement("password");
	movq	%rax, %r12	#, tmp217
	movq	%rdx, %rbx	#, tmp219
	leaq	-944(%rbp), %rax	#, tmp215
	movq	%rax, %rdi	# tmp215,
	call	_ZNSt7__cxx1112basic_stringIcSt11char_traitsIcESaIcEED1Ev@PLT	#
# SUCC: 61 [always] 
	jmp	.L153	#
# BLOCK 60 seq:58
# PRED: 27 (ABNORMAL,ABNORMAL_CALL,EH)
.L172:
	endbr64	
	movq	%rax, %r12	#, tmp216
# SUCC: 61 [always]  (FALLTHRU)
	movq	%rdx, %rbx	#, tmp218
# BLOCK 61 seq:59
# PRED: 60 [always]  (FALLTHRU) 59 [always] 
.L153:
# cgi.cpp:118:     const_form_iterator password = cgi.getElement("password");
	leaq	-1056(%rbp), %rax	#, tmp220
	movq	%rax, %rdi	# tmp220,
	call	_ZNSaIcED1Ev@PLT	#
# SUCC: 68 [always] 
	jmp	.L151	#
# BLOCK 62 seq:60
# PRED: 34 (ABNORMAL,ABNORMAL_CALL,EH) 36 (ABNORMAL,ABNORMAL_CALL,EH)
.L174:
	endbr64	
# cgi.cpp:122:       if (user->getValue() == "admin" && password->getValue() == "admin") {
	movq	%rax, %r14	#, tmp223
	movq	%rdx, %r13	#, tmp225
	testb	%r12b, %r12b	# cleanup.27_28
# SUCC: 63 (FALLTHRU) 64
	je	.L155	#,
# BLOCK 63 seq:61
# PRED: 62 (FALLTHRU)
# cgi.cpp:122:       if (user->getValue() == "admin" && password->getValue() == "admin") {
	leaq	-944(%rbp), %rax	#, tmp221
	movq	%rax, %rdi	# tmp221,
# SUCC: 64 (FALLTHRU)
	call	_ZNSt7__cxx1112basic_stringIcSt11char_traitsIcESaIcEED1Ev@PLT	#
# BLOCK 64 seq:62
# PRED: 62 63 (FALLTHRU)
.L155:
	movq	%r14, %r12	# tmp223, tmp222
# cgi.cpp:122:       if (user->getValue() == "admin" && password->getValue() == "admin") {
	testb	%bl, %bl	# cleanup.26_27
# SUCC: 65 (FALLTHRU) 66
	je	.L156	#,
# BLOCK 65 seq:63
# PRED: 64 (FALLTHRU)
# cgi.cpp:122:       if (user->getValue() == "admin" && password->getValue() == "admin") {
	leaq	-976(%rbp), %rax	#, tmp226
	movq	%rax, %rdi	# tmp226,
# SUCC: 66 (FALLTHRU)
	call	_ZNSt7__cxx1112basic_stringIcSt11char_traitsIcESaIcEED1Ev@PLT	#
# BLOCK 66 seq:64
# PRED: 64 65 (FALLTHRU)
.L156:
	movq	%r13, %rbx	# tmp224, tmp214
# SUCC: 68 [always] 
	jmp	.L151	#
# BLOCK 67 seq:65
# PRED: 16 (ABNORMAL,ABNORMAL_CALL,EH) 18 (ABNORMAL,ABNORMAL_CALL,EH) 20 (ABNORMAL,ABNORMAL_CALL,EH) 45 (ABNORMAL,ABNORMAL_CALL,EH) 48 (ABNORMAL,ABNORMAL_CALL,EH)
.L169:
	endbr64	
# cgi.cpp:132:   } catch(const std::runtime_error& e) {
	movq	%rax, %r12	#, tmp213
# SUCC: 68 [always]  (FALLTHRU)
	movq	%rdx, %rbx	#, tmp214
# BLOCK 68 seq:66
# PRED: 61 [always]  58 [always]  67 [always]  (FALLTHRU) 66 [always] 
.L151:
	leaq	-912(%rbp), %rax	#, tmp227
	movq	%rax, %rdi	# tmp227,
	call	_ZN5cgicc5CgiccD1Ev@PLT	#
	movq	%r12, %rax	# tmp213, tmp228
	movq	%rbx, %rdx	# tmp214, tmp229
# SUCC: 70 [always] 
	jmp	.L157	#
# BLOCK 69 seq:67
# PRED: 14 (ABNORMAL,ABNORMAL_CALL,EH)
.L168:
	endbr64	
# SUCC: 70 [always]  (FALLTHRU)
# BLOCK 70 seq:68
# PRED: 69 [always]  (FALLTHRU) 68 [always] 
.L157:
# cgi.cpp:132:   } catch(const std::runtime_error& e) {
	cmpq	$1, %rdx	#, D.70268
# SUCC: 71 (FALLTHRU) 73
	je	.L158	#,
# BLOCK 71 seq:69
# PRED: 70 (FALLTHRU)
	cmpq	$2, %rdx	#, D.70268
# SUCC: 72 (FALLTHRU) 78
	je	.L159	#,
# BLOCK 72 seq:70
# PRED: 71 (FALLTHRU)
	movq	%rax, %rdi	# D.70270,
# SUCC:
	call	_Unwind_Resume@PLT	#
.LEHE85:
# BLOCK 73 seq:71
# PRED: 70
.L158:
# cgi.cpp:132:   } catch(const std::runtime_error& e) {
	movq	%rax, %rdi	# _15,
	call	__cxa_begin_catch@PLT	#
	movq	%rax, -1016(%rbp)	# _205, e
# cgi.cpp:133:     cout << HTTPStatusHeader(502, "Error occurred.") << endl;
	leaq	-1064(%rbp), %rax	#, tmp230
	movq	%rax, %rdi	# tmp230,
	call	_ZNSaIcEC1Ev@PLT	#
	leaq	-1064(%rbp), %rdx	#, tmp231
	leaq	-944(%rbp), %rax	#, tmp232
	leaq	.LC43(%rip), %rcx	#, tmp233
	movq	%rcx, %rsi	# tmp233,
	movq	%rax, %rdi	# tmp232,
.LEHB86:
# SUCC: 86 (ABNORMAL,ABNORMAL_CALL,EH) 74 (FALLTHRU)
	call	_ZNSt7__cxx1112basic_stringIcSt11char_traitsIcESaIcEEC1IS3_EEPKcRKS3_	#
.LEHE86:
# BLOCK 74 seq:72
# PRED: 73 (FALLTHRU)
# cgi.cpp:133:     cout << HTTPStatusHeader(502, "Error occurred.") << endl;
	leaq	-944(%rbp), %rdx	#, tmp234
	leaq	-912(%rbp), %rax	#, tmp235
	movl	$502, %esi	#,
	movq	%rax, %rdi	# tmp235,
.LEHB87:
# SUCC: 84 (ABNORMAL,ABNORMAL_CALL,EH) 75 (FALLTHRU)
	call	_ZN5cgicc16HTTPStatusHeaderC1EiRKNSt7__cxx1112basic_stringIcSt11char_traitsIcESaIcEEE@PLT	#
.LEHE87:
# BLOCK 75 seq:73
# PRED: 74 (FALLTHRU)
# cgi.cpp:133:     cout << HTTPStatusHeader(502, "Error occurred.") << endl;
	leaq	-912(%rbp), %rax	#, tmp236
	movq	%rax, %rsi	# tmp236,
	leaq	_ZSt4cout(%rip), %rax	#, tmp237
	movq	%rax, %rdi	# tmp237,
.LEHB88:
# SUCC: 83 (ABNORMAL,ABNORMAL_CALL,EH) 76 (FALLTHRU)
	call	_ZN5cgicclsERSoRKNS_11MStreamableE@PLT	#
# BLOCK 76 seq:74
# PRED: 75 (FALLTHRU)
# cgi.cpp:133:     cout << HTTPStatusHeader(502, "Error occurred.") << endl;
	movq	_ZSt4endlIcSt11char_traitsIcEERSt13basic_ostreamIT_T0_ES6_@GOTPCREL(%rip), %rdx	#, tmp239
	movq	%rdx, %rsi	# tmp238,
	movq	%rax, %rdi	# _16,
# SUCC: 83 (ABNORMAL,ABNORMAL_CALL,EH) 77 (FALLTHRU)
	call	_ZNSolsEPFRSoS_E@PLT	#
.LEHE88:
# BLOCK 77 seq:75
# PRED: 76 (FALLTHRU)
# cgi.cpp:133:     cout << HTTPStatusHeader(502, "Error occurred.") << endl;
	leaq	-912(%rbp), %rax	#, tmp240
	movq	%rax, %rdi	# tmp240,
	call	_ZN5cgicc16HTTPStatusHeaderD1Ev@PLT	#
	leaq	-944(%rbp), %rax	#, tmp241
	movq	%rax, %rdi	# tmp241,
	call	_ZNSt7__cxx1112basic_stringIcSt11char_traitsIcESaIcEED1Ev@PLT	#
	leaq	-1064(%rbp), %rax	#, tmp242
	movq	%rax, %rdi	# tmp242,
	call	_ZNSaIcED1Ev@PLT	#
# cgi.cpp:134:     return;
	nop	
# cgi.cpp:135:   } catch(const std::logic_error& e) {
	call	__cxa_end_catch@PLT	#
# SUCC: 93 [always] 
# cgi.cpp:139: }
	jmp	.L126	#
# BLOCK 78 seq:76
# PRED: 71
.L159:
# cgi.cpp:135:   } catch(const std::logic_error& e) {
	movq	%rax, %rdi	# _17,
	call	__cxa_begin_catch@PLT	#
	movq	%rax, -1024(%rbp)	# _182, e
# cgi.cpp:136:     cout << HTTPStatusHeader(502, "Error occurred.") << endl;
	leaq	-1064(%rbp), %rax	#, tmp243
	movq	%rax, %rdi	# tmp243,
	call	_ZNSaIcEC1Ev@PLT	#
	leaq	-1064(%rbp), %rdx	#, tmp244
	leaq	-944(%rbp), %rax	#, tmp245
	leaq	.LC43(%rip), %rcx	#, tmp246
	movq	%rcx, %rsi	# tmp246,
	movq	%rax, %rdi	# tmp245,
.LEHB89:
# SUCC: 91 (ABNORMAL,ABNORMAL_CALL,EH) 79 (FALLTHRU)
	call	_ZNSt7__cxx1112basic_stringIcSt11char_traitsIcESaIcEEC1IS3_EEPKcRKS3_	#
.LEHE89:
# BLOCK 79 seq:77
# PRED: 78 (FALLTHRU)
# cgi.cpp:136:     cout << HTTPStatusHeader(502, "Error occurred.") << endl;
	leaq	-944(%rbp), %rdx	#, tmp247
	leaq	-912(%rbp), %rax	#, tmp248
	movl	$502, %esi	#,
	movq	%rax, %rdi	# tmp248,
.LEHB90:
# SUCC: 89 (ABNORMAL,ABNORMAL_CALL,EH) 80 (FALLTHRU)
	call	_ZN5cgicc16HTTPStatusHeaderC1EiRKNSt7__cxx1112basic_stringIcSt11char_traitsIcESaIcEEE@PLT	#
.LEHE90:
# BLOCK 80 seq:78
# PRED: 79 (FALLTHRU)
# cgi.cpp:136:     cout << HTTPStatusHeader(502, "Error occurred.") << endl;
	leaq	-912(%rbp), %rax	#, tmp249
	movq	%rax, %rsi	# tmp249,
	leaq	_ZSt4cout(%rip), %rax	#, tmp250
	movq	%rax, %rdi	# tmp250,
.LEHB91:
# SUCC: 88 (ABNORMAL,ABNORMAL_CALL,EH) 81 (FALLTHRU)
	call	_ZN5cgicclsERSoRKNS_11MStreamableE@PLT	#
# BLOCK 81 seq:79
# PRED: 80 (FALLTHRU)
# cgi.cpp:136:     cout << HTTPStatusHeader(502, "Error occurred.") << endl;
	movq	_ZSt4endlIcSt11char_traitsIcEERSt13basic_ostreamIT_T0_ES6_@GOTPCREL(%rip), %rdx	#, tmp252
	movq	%rdx, %rsi	# tmp251,
	movq	%rax, %rdi	# _18,
# SUCC: 88 (ABNORMAL,ABNORMAL_CALL,EH) 82 (FALLTHRU)
	call	_ZNSolsEPFRSoS_E@PLT	#
.LEHE91:
# BLOCK 82 seq:80
# PRED: 81 (FALLTHRU)
# cgi.cpp:136:     cout << HTTPStatusHeader(502, "Error occurred.") << endl;
	leaq	-912(%rbp), %rax	#, tmp253
	movq	%rax, %rdi	# tmp253,
	call	_ZN5cgicc16HTTPStatusHeaderD1Ev@PLT	#
	leaq	-944(%rbp), %rax	#, tmp254
	movq	%rax, %rdi	# tmp254,
	call	_ZNSt7__cxx1112basic_stringIcSt11char_traitsIcESaIcEED1Ev@PLT	#
	leaq	-1064(%rbp), %rax	#, tmp255
	movq	%rax, %rdi	# tmp255,
	call	_ZNSaIcED1Ev@PLT	#
# cgi.cpp:137:     return;
	nop	
# cgi.cpp:138:   }
	call	__cxa_end_catch@PLT	#
# SUCC: 93 [always] 
# cgi.cpp:139: }
	jmp	.L126	#
# BLOCK 83 seq:81
# PRED: 75 (ABNORMAL,ABNORMAL_CALL,EH) 76 (ABNORMAL,ABNORMAL_CALL,EH)
.L177:
	endbr64	
# cgi.cpp:133:     cout << HTTPStatusHeader(502, "Error occurred.") << endl;
	movq	%rax, %rbx	#, tmp258
	leaq	-912(%rbp), %rax	#, tmp256
	movq	%rax, %rdi	# tmp256,
	call	_ZN5cgicc16HTTPStatusHeaderD1Ev@PLT	#
# SUCC: 85 [always] 
	jmp	.L161	#
# BLOCK 84 seq:82
# PRED: 74 (ABNORMAL,ABNORMAL_CALL,EH)
.L176:
	endbr64	
# SUCC: 85 [always]  (FALLTHRU)
	movq	%rax, %rbx	#, tmp257
# BLOCK 85 seq:83
# PRED: 84 [always]  (FALLTHRU) 83 [always] 
.L161:
# cgi.cpp:133:     cout << HTTPStatusHeader(502, "Error occurred.") << endl;
	leaq	-944(%rbp), %rax	#, tmp261
	movq	%rax, %rdi	# tmp261,
	call	_ZNSt7__cxx1112basic_stringIcSt11char_traitsIcESaIcEED1Ev@PLT	#
# SUCC: 87 [always] 
	jmp	.L162	#
# BLOCK 86 seq:84
# PRED: 73 (ABNORMAL,ABNORMAL_CALL,EH)
.L175:
	endbr64	
# SUCC: 87 [always]  (FALLTHRU)
# cgi.cpp:133:     cout << HTTPStatusHeader(502, "Error occurred.") << endl;
	movq	%rax, %rbx	#, tmp262
# BLOCK 87 seq:85
# PRED: 86 [always]  (FALLTHRU) 85 [always] 
.L162:
# cgi.cpp:133:     cout << HTTPStatusHeader(502, "Error occurred.") << endl;
	leaq	-1064(%rbp), %rax	#, tmp264
	movq	%rax, %rdi	# tmp264,
	call	_ZNSaIcED1Ev@PLT	#
# cgi.cpp:135:   } catch(const std::logic_error& e) {
	call	__cxa_end_catch@PLT	#
	movq	%rbx, %rax	# tmp265, D.70271
	movq	%rax, %rdi	# D.70271,
.LEHB92:
# SUCC:
	call	_Unwind_Resume@PLT	#
# BLOCK 88 seq:86
# PRED: 80 (ABNORMAL,ABNORMAL_CALL,EH) 81 (ABNORMAL,ABNORMAL_CALL,EH)
.L180:
	endbr64	
# cgi.cpp:136:     cout << HTTPStatusHeader(502, "Error occurred.") << endl;
	movq	%rax, %rbx	#, tmp269
	leaq	-912(%rbp), %rax	#, tmp267
	movq	%rax, %rdi	# tmp267,
	call	_ZN5cgicc16HTTPStatusHeaderD1Ev@PLT	#
# SUCC: 90 [always] 
	jmp	.L164	#
# BLOCK 89 seq:87
# PRED: 79 (ABNORMAL,ABNORMAL_CALL,EH)
.L179:
	endbr64	
# SUCC: 90 [always]  (FALLTHRU)
	movq	%rax, %rbx	#, tmp268
# BLOCK 90 seq:88
# PRED: 89 [always]  (FALLTHRU) 88 [always] 
.L164:
# cgi.cpp:136:     cout << HTTPStatusHeader(502, "Error occurred.") << endl;
	leaq	-944(%rbp), %rax	#, tmp272
	movq	%rax, %rdi	# tmp272,
	call	_ZNSt7__cxx1112basic_stringIcSt11char_traitsIcESaIcEED1Ev@PLT	#
# SUCC: 92 [always] 
	jmp	.L165	#
# BLOCK 91 seq:89
# PRED: 78 (ABNORMAL,ABNORMAL_CALL,EH)
.L178:
	endbr64	
# SUCC: 92 [always]  (FALLTHRU)
# cgi.cpp:136:     cout << HTTPStatusHeader(502, "Error occurred.") << endl;
	movq	%rax, %rbx	#, tmp273
# BLOCK 92 seq:90
# PRED: 91 [always]  (FALLTHRU) 90 [always] 
.L165:
# cgi.cpp:136:     cout << HTTPStatusHeader(502, "Error occurred.") << endl;
	leaq	-1064(%rbp), %rax	#, tmp275
	movq	%rax, %rdi	# tmp275,
	call	_ZNSaIcED1Ev@PLT	#
# cgi.cpp:138:   }
	call	__cxa_end_catch@PLT	#
	movq	%rbx, %rax	# tmp276, D.70272
	movq	%rax, %rdi	# D.70272,
# SUCC:
	call	_Unwind_Resume@PLT	#
.LEHE92:
# BLOCK 93 seq:91
# PRED: 77 [always]  50 [always]  82 [always] 
.L126:
# cgi.cpp:139: }
	movq	-40(%rbp), %rax	# D.70274, tmp279
	subq	%fs:40, %rax	# MEM[(<address-space-1> long unsigned int *)40B], tmp279
# SUCC: 95 94 (FALLTHRU)
	je	.L166	#,
# BLOCK 94 seq:92
# PRED: 93 (FALLTHRU)
# SUCC:
	call	__stack_chk_fail@PLT	#
# BLOCK 95 seq:93
# PRED: 93
.L166:
	addq	$1072, %rsp	#,
	popq	%rbx	#
	popq	%r12	#
	popq	%r13	#
	popq	%r14	#
	popq	%rbp	#
	.cfi_def_cfa 7, 8
# SUCC: EXIT [always] 
	ret	
	.cfi_endproc
.LFE2490:
	.section	.gcc_except_table
	.align 4
.LLSDA2490:
	.byte	0xff	# @LPStart format (omit)
	.byte	0x9b	# @TType format (indirect pcrel sdata4)
	.uleb128 .LLSDATT2490-.LLSDATTD2490	# @TType base offset
.LLSDATTD2490:
	.byte	0x1	# call-site format (uleb128)
	.uleb128 .LLSDACSE2490-.LLSDACSB2490	# Call-site table length
.LLSDACSB2490:
	.uleb128 .LEHB75-.LFB2490	# region 0 start
	.uleb128 .LEHE75-.LEHB75	# length
	.uleb128 .L167-.LFB2490	# landing pad
	.uleb128 0	# action
	.uleb128 .LEHB76-.LFB2490	# region 1 start
	.uleb128 .LEHE76-.LEHB76	# length
	.uleb128 0	# landing pad
	.uleb128 0	# action
	.uleb128 .LEHB77-.LFB2490	# region 2 start
	.uleb128 .LEHE77-.LEHB77	# length
	.uleb128 .L168-.LFB2490	# landing pad
	.uleb128 0x3	# action
	.uleb128 .LEHB78-.LFB2490	# region 3 start
	.uleb128 .LEHE78-.LEHB78	# length
	.uleb128 .L169-.LFB2490	# landing pad
	.uleb128 0x5	# action
	.uleb128 .LEHB79-.LFB2490	# region 4 start
	.uleb128 .LEHE79-.LEHB79	# length
	.uleb128 .L170-.LFB2490	# landing pad
	.uleb128 0x5	# action
	.uleb128 .LEHB80-.LFB2490	# region 5 start
	.uleb128 .LEHE80-.LEHB80	# length
	.uleb128 .L171-.LFB2490	# landing pad
	.uleb128 0x5	# action
	.uleb128 .LEHB81-.LFB2490	# region 6 start
	.uleb128 .LEHE81-.LEHB81	# length
	.uleb128 .L172-.LFB2490	# landing pad
	.uleb128 0x5	# action
	.uleb128 .LEHB82-.LFB2490	# region 7 start
	.uleb128 .LEHE82-.LEHB82	# length
	.uleb128 .L173-.LFB2490	# landing pad
	.uleb128 0x5	# action
	.uleb128 .LEHB83-.LFB2490	# region 8 start
	.uleb128 .LEHE83-.LEHB83	# length
	.uleb128 .L174-.LFB2490	# landing pad
	.uleb128 0x5	# action
	.uleb128 .LEHB84-.LFB2490	# region 9 start
	.uleb128 .LEHE84-.LEHB84	# length
	.uleb128 .L169-.LFB2490	# landing pad
	.uleb128 0x5	# action
	.uleb128 .LEHB85-.LFB2490	# region 10 start
	.uleb128 .LEHE85-.LEHB85	# length
	.uleb128 0	# landing pad
	.uleb128 0	# action
	.uleb128 .LEHB86-.LFB2490	# region 11 start
	.uleb128 .LEHE86-.LEHB86	# length
	.uleb128 .L175-.LFB2490	# landing pad
	.uleb128 0	# action
	.uleb128 .LEHB87-.LFB2490	# region 12 start
	.uleb128 .LEHE87-.LEHB87	# length
	.uleb128 .L176-.LFB2490	# landing pad
	.uleb128 0	# action
	.uleb128 .LEHB88-.LFB2490	# region 13 start
	.uleb128 .LEHE88-.LEHB88	# length
	.uleb128 .L177-.LFB2490	# landing pad
	.uleb128 0	# action
	.uleb128 .LEHB89-.LFB2490	# region 14 start
	.uleb128 .LEHE89-.LEHB89	# length
	.uleb128 .L178-.LFB2490	# landing pad
	.uleb128 0	# action
	.uleb128 .LEHB90-.LFB2490	# region 15 start
	.uleb128 .LEHE90-.LEHB90	# length
	.uleb128 .L179-.LFB2490	# landing pad
	.uleb128 0	# action
	.uleb128 .LEHB91-.LFB2490	# region 16 start
	.uleb128 .LEHE91-.LEHB91	# length
	.uleb128 .L180-.LFB2490	# landing pad
	.uleb128 0	# action
	.uleb128 .LEHB92-.LFB2490	# region 17 start
	.uleb128 .LEHE92-.LEHB92	# length
	.uleb128 0	# landing pad
	.uleb128 0	# action
.LLSDACSE2490:
	.byte	0x2	# Action record table
	.byte	0
	.byte	0x1
	.byte	0x7d
	.byte	0
	.byte	0x7d
	.align 4
	.long	DW.ref._ZTISt11logic_error-.
	.long	DW.ref._ZTISt13runtime_error-.
.LLSDATT2490:
	.text
	.size	_Z7CgiMainiPPc, .-_Z7CgiMainiPPc
	.globl	main
	.type	main, @function
main:
.LFB2491:
  .cfi_startproc
  .cfi_personality 0x9b,DW.ref.__gxx_personality_v0
  .cfi_lsda 0x1b,.LLSDA2491
	endbr64	
# BLOCK 2 seq:0
# PRED: ENTRY (FALLTHRU)
	pushq	%rbp	#
	.cfi_def_cfa_offset 16
	.cfi_offset 6, -16
	movq	%rsp, %rbp	#,
	.cfi_def_cfa_register 6
	subq	$16, %rsp	#,
	movl	%edi, -4(%rbp)	# argc, argc
	movq	%rsi, -16(%rbp)	# argv, argv
# cgi.cpp:142:   CgiMain(argc, argv);
	movq	-16(%rbp), %rdx	# argv, tmp84
	movl	-4(%rbp), %eax	# argc, tmp85
	movq	%rdx, %rsi	# tmp84,
	movl	%eax, %edi	# tmp85,
.LEHB2491:
	call	_Z7CgiMainiPPc	#
.LEHE2491:
# cgi.cpp:143: }
	movl	$0, %eax	#, _5
	leave	
	.cfi_def_cfa 7, 8
# SUCC: EXIT [always]
.LLANDINGPAD:
	ret	
	.cfi_endproc
.LFE2491:
  .section  .gcc_except_table
.LLSDA2491:
  .byte 0xff  # @LPStart format (omit)
  .byte 0x9b  # @TType format (omit)
  .uleb128 .LLSDATT2491-.LLSDATTD2491     # @TType base offset
.LLSDATTD2491:
  .byte 0x1 # call-site format (uleb128)
  .uleb128 .LLSDACSE2491-.LLSDACSB2491  # Call-site table length
.LLSDACSB2491:
  .uleb128 .LEHB2491-.LFB2491 # region 1 start
  .uleb128 .LEHE2491-.LEHB2491  # length
  .uleb128 .LLANDINGPAD-.LFB2491 # landing pad
  #.uleb128 0xdeadbeeffeedface # landing pad
  .uleb128 1 # action
.LLSDACSE2491:
  .byte 0x1 # Action record table
  .byte 0
  .align 4
  .long 0
  .long 0
  .long 0
.LLSDATT2491:
  .text
	.size	main, .-main
	.section	.text._ZN9__gnu_cxx11char_traitsIcE2eqERKcS3_,"axG",@progbits,_ZN9__gnu_cxx11char_traitsIcE2eqERKcS3_,comdat
	.weak	_ZN9__gnu_cxx11char_traitsIcE2eqERKcS3_
	.type	_ZN9__gnu_cxx11char_traitsIcE2eqERKcS3_, @function
_ZN9__gnu_cxx11char_traitsIcE2eqERKcS3_:
.LFB2493:
	.cfi_startproc
	endbr64	
# BLOCK 2 seq:0
# PRED: ENTRY (FALLTHRU)
	pushq	%rbp	#
	.cfi_def_cfa_offset 16
	.cfi_offset 6, -16
	movq	%rsp, %rbp	#,
	.cfi_def_cfa_register 6
	movq	%rdi, -8(%rbp)	# __c1, __c1
	movq	%rsi, -16(%rbp)	# __c2, __c2
# /usr/include/c++/11/bits/char_traits.h:107:       { return __c1 == __c2; }
	movq	-8(%rbp), %rax	# __c1, tmp86
	movzbl	(%rax), %edx	# *__c1_4(D), _1
	movq	-16(%rbp), %rax	# __c2, tmp87
	movzbl	(%rax), %eax	# *__c2_5(D), _2
# /usr/include/c++/11/bits/char_traits.h:107:       { return __c1 == __c2; }
	cmpb	%al, %dl	# _2, _1
	sete	%al	#, _6
# /usr/include/c++/11/bits/char_traits.h:107:       { return __c1 == __c2; }
	popq	%rbp	#
	.cfi_def_cfa 7, 8
# SUCC: EXIT [always] 
	ret	
	.cfi_endproc
.LFE2493:
	.size	_ZN9__gnu_cxx11char_traitsIcE2eqERKcS3_, .-_ZN9__gnu_cxx11char_traitsIcE2eqERKcS3_
	.section	.text._ZN9__gnu_cxx11char_traitsIcE6lengthEPKc,"axG",@progbits,_ZN9__gnu_cxx11char_traitsIcE6lengthEPKc,comdat
	.align 2
	.weak	_ZN9__gnu_cxx11char_traitsIcE6lengthEPKc
	.type	_ZN9__gnu_cxx11char_traitsIcE6lengthEPKc, @function
_ZN9__gnu_cxx11char_traitsIcE6lengthEPKc:
.LFB2492:
	.cfi_startproc
	endbr64	
# BLOCK 2 seq:0
# PRED: ENTRY (FALLTHRU)
	pushq	%rbp	#
	.cfi_def_cfa_offset 16
	.cfi_offset 6, -16
	movq	%rsp, %rbp	#,
	.cfi_def_cfa_register 6
	subq	$48, %rsp	#,
	movq	%rdi, -40(%rbp)	# __p, __p
# /usr/include/c++/11/bits/char_traits.h:167:     char_traits<_CharT>::
	movq	%fs:40, %rax	# MEM[(<address-space-1> long unsigned int *)40B], tmp91
	movq	%rax, -8(%rbp)	# tmp91, D.70285
	xorl	%eax, %eax	# tmp91
# /usr/include/c++/11/bits/char_traits.h:170:       std::size_t __i = 0;
	movq	$0, -16(%rbp)	#, __i
# SUCC: 4 [always] 
# /usr/include/c++/11/bits/char_traits.h:171:       while (!eq(__p[__i], char_type()))
	jmp	.L187	#
# BLOCK 3 seq:1
# PRED: 4
.L188:
# SUCC: 4 (FALLTHRU,DFS_BACK)
# /usr/include/c++/11/bits/char_traits.h:172:         ++__i;
	addq	$1, -16(%rbp)	#, __i
# BLOCK 4 seq:2
# PRED: 3 (FALLTHRU,DFS_BACK) 2 [always] 
.L187:
# /usr/include/c++/11/bits/char_traits.h:171:       while (!eq(__p[__i], char_type()))
	movb	$0, -17(%rbp)	#, D.62588
# /usr/include/c++/11/bits/char_traits.h:171:       while (!eq(__p[__i], char_type()))
	movq	-40(%rbp), %rdx	# __p, tmp87
	movq	-16(%rbp), %rax	# __i, tmp88
	addq	%rax, %rdx	# tmp88, _1
# /usr/include/c++/11/bits/char_traits.h:171:       while (!eq(__p[__i], char_type()))
	leaq	-17(%rbp), %rax	#, tmp89
	movq	%rax, %rsi	# tmp89,
	movq	%rdx, %rdi	# _1,
	call	_ZN9__gnu_cxx11char_traitsIcE2eqERKcS3_	#
	xorl	$1, %eax	#, retval.5_10
	testb	%al, %al	# retval.5_10
# SUCC: 3 5 (FALLTHRU)
	jne	.L188	#,
# BLOCK 5 seq:3
# PRED: 4 (FALLTHRU)
# /usr/include/c++/11/bits/char_traits.h:173:       return __i;
	movq	-16(%rbp), %rax	# __i, _12
# /usr/include/c++/11/bits/char_traits.h:174:     }
	movq	-8(%rbp), %rdx	# D.70285, tmp92
	subq	%fs:40, %rdx	# MEM[(<address-space-1> long unsigned int *)40B], tmp92
# SUCC: 7 6 (FALLTHRU)
	je	.L190	#,
# BLOCK 6 seq:4
# PRED: 5 (FALLTHRU)
# SUCC:
	call	__stack_chk_fail@PLT	#
# BLOCK 7 seq:5
# PRED: 5
.L190:
	leave	
	.cfi_def_cfa 7, 8
# SUCC: EXIT [always] 
	ret	
	.cfi_endproc
.LFE2492:
	.size	_ZN9__gnu_cxx11char_traitsIcE6lengthEPKc, .-_ZN9__gnu_cxx11char_traitsIcE6lengthEPKc
	.section	.text._ZNSt7__cxx1112basic_stringIcSt11char_traitsIcESaIcEE12_Alloc_hiderD2Ev,"axG",@progbits,_ZNSt7__cxx1112basic_stringIcSt11char_traitsIcESaIcEE12_Alloc_hiderD5Ev,comdat
	.align 2
	.weak	_ZNSt7__cxx1112basic_stringIcSt11char_traitsIcESaIcEE12_Alloc_hiderD2Ev
	.type	_ZNSt7__cxx1112basic_stringIcSt11char_traitsIcESaIcEE12_Alloc_hiderD2Ev, @function
_ZNSt7__cxx1112basic_stringIcSt11char_traitsIcESaIcEE12_Alloc_hiderD2Ev:
.LFB2600:
	.cfi_startproc
	endbr64	
# BLOCK 2 seq:0
# PRED: ENTRY (FALLTHRU)
	pushq	%rbp	#
	.cfi_def_cfa_offset 16
	.cfi_offset 6, -16
	movq	%rsp, %rbp	#,
	.cfi_def_cfa_register 6
	subq	$16, %rsp	#,
	movq	%rdi, -8(%rbp)	# this, this
# /usr/include/c++/11/bits/basic_string.h:158:       struct _Alloc_hider : allocator_type // TODO check __is_final
	movq	-8(%rbp), %rax	# this, tmp82
	movq	%rax, %rdi	# tmp82,
	call	_ZNSaIcED2Ev@PLT	#
	nop	
	leave	
	.cfi_def_cfa 7, 8
# SUCC: EXIT [always] 
	ret	
	.cfi_endproc
.LFE2600:
	.size	_ZNSt7__cxx1112basic_stringIcSt11char_traitsIcESaIcEE12_Alloc_hiderD2Ev, .-_ZNSt7__cxx1112basic_stringIcSt11char_traitsIcESaIcEE12_Alloc_hiderD2Ev
	.weak	_ZNSt7__cxx1112basic_stringIcSt11char_traitsIcESaIcEE12_Alloc_hiderD1Ev
	.set	_ZNSt7__cxx1112basic_stringIcSt11char_traitsIcESaIcEE12_Alloc_hiderD1Ev,_ZNSt7__cxx1112basic_stringIcSt11char_traitsIcESaIcEE12_Alloc_hiderD2Ev
	.section	.text._ZNSt7__cxx1112basic_stringIcSt11char_traitsIcESaIcEEC2IS3_EEPKcRKS3_,"axG",@progbits,_ZNSt7__cxx1112basic_stringIcSt11char_traitsIcESaIcEEC5IS3_EEPKcRKS3_,comdat
	.align 2
	.weak	_ZNSt7__cxx1112basic_stringIcSt11char_traitsIcESaIcEEC2IS3_EEPKcRKS3_
	.type	_ZNSt7__cxx1112basic_stringIcSt11char_traitsIcESaIcEEC2IS3_EEPKcRKS3_, @function
_ZNSt7__cxx1112basic_stringIcSt11char_traitsIcESaIcEEC2IS3_EEPKcRKS3_:
.LFB2821:
	.cfi_startproc
	.cfi_personality 0x9b,DW.ref.__gxx_personality_v0
	.cfi_lsda 0x1b,.LLSDA2821
	endbr64	
# BLOCK 2 seq:0
# PRED: ENTRY (FALLTHRU)
	pushq	%rbp	#
	.cfi_def_cfa_offset 16
	.cfi_offset 6, -16
	movq	%rsp, %rbp	#,
	.cfi_def_cfa_register 6
	pushq	%rbx	#
	subq	$72, %rsp	#,
	.cfi_offset 3, -24
	movq	%rdi, -56(%rbp)	# this, this
	movq	%rsi, -64(%rbp)	# __s, __s
	movq	%rdx, -72(%rbp)	# __a, __a
# /usr/include/c++/11/bits/basic_string.h:533:       basic_string(const _CharT* __s, const _Alloc& __a = _Alloc())
	movq	%fs:40, %rax	# MEM[(<address-space-1> long unsigned int *)40B], tmp98
	movq	%rax, -24(%rbp)	# tmp98, D.70287
	xorl	%eax, %eax	# tmp98
# /usr/include/c++/11/bits/basic_string.h:534:       : _M_dataplus(_M_local_data(), __a)
	movq	-56(%rbp), %rbx	# this, _1
	movq	-56(%rbp), %rax	# this, tmp90
	movq	%rax, %rdi	# tmp90,
.LEHB93:
	call	_ZNSt7__cxx1112basic_stringIcSt11char_traitsIcESaIcEE13_M_local_dataEv@PLT	#
	movq	%rax, %rcx	#, _2
	movq	-72(%rbp), %rax	# __a, tmp91
	movq	%rax, %rdx	# tmp91,
	movq	%rcx, %rsi	# _2,
	movq	%rbx, %rdi	# _1,
	call	_ZNSt7__cxx1112basic_stringIcSt11char_traitsIcESaIcEE12_Alloc_hiderC1EPcRKS3_@PLT	#
.LEHE93:
# /usr/include/c++/11/bits/basic_string.h:536: 	const _CharT* __end = __s ? __s + traits_type::length(__s)
	cmpq	$0, -64(%rbp)	#, __s
# SUCC: 3 (FALLTHRU) 5
	je	.L193	#,
# BLOCK 3 seq:1
# PRED: 2 (FALLTHRU)
# /usr/include/c++/11/bits/basic_string.h:536: 	const _CharT* __end = __s ? __s + traits_type::length(__s)
	movq	-64(%rbp), %rax	# __s, tmp92
	movq	%rax, %rdi	# tmp92,
.LEHB94:
# SUCC: 8 (ABNORMAL,ABNORMAL_CALL,EH) 4 (FALLTHRU)
	call	_ZNSt11char_traitsIcE6lengthEPKc	#
# BLOCK 4 seq:2
# PRED: 3 (FALLTHRU)
# /usr/include/c++/11/bits/basic_string.h:536: 	const _CharT* __end = __s ? __s + traits_type::length(__s)
	movq	-64(%rbp), %rdx	# __s, tmp93
	addq	%rdx, %rax	# tmp93, iftmp.3_6
# SUCC: 6 [always] 
	jmp	.L194	#
# BLOCK 5 seq:3
# PRED: 2
.L193:
# SUCC: 6 (FALLTHRU)
# /usr/include/c++/11/bits/basic_string.h:536: 	const _CharT* __end = __s ? __s + traits_type::length(__s)
	movl	$1, %eax	#, iftmp.3_6
# BLOCK 6 seq:4
# PRED: 5 (FALLTHRU) 4 [always] 
.L194:
# /usr/include/c++/11/bits/basic_string.h:536: 	const _CharT* __end = __s ? __s + traits_type::length(__s)
	movq	%rax, -32(%rbp)	# iftmp.3_6, __end
# /usr/include/c++/11/bits/basic_string.h:539: 	_M_construct(__s, __end, random_access_iterator_tag());
	movq	-32(%rbp), %rdx	# __end, tmp94
	movq	-64(%rbp), %rcx	# __s, tmp95
	movq	-56(%rbp), %rax	# this, tmp96
	movq	%rcx, %rsi	# tmp95,
	movq	%rax, %rdi	# tmp96,
# SUCC: 8 (ABNORMAL,ABNORMAL_CALL,EH) 7 (FALLTHRU)
	call	_ZNSt7__cxx1112basic_stringIcSt11char_traitsIcESaIcEE12_M_constructIPKcEEvT_S8_St20forward_iterator_tag	#
.LEHE94:
# BLOCK 7 seq:5
# PRED: 6 (FALLTHRU)
# SUCC: 9 [always] 
# /usr/include/c++/11/bits/basic_string.h:540:       }
	jmp	.L198	#
# BLOCK 8 seq:6
# PRED: 3 (ABNORMAL,ABNORMAL_CALL,EH) 6 (ABNORMAL,ABNORMAL_CALL,EH)
.L197:
	endbr64	
	movq	%rax, %rbx	#, tmp97
	movq	-56(%rbp), %rax	# this, _5
	movq	%rax, %rdi	# _5,
	call	_ZNSt7__cxx1112basic_stringIcSt11char_traitsIcESaIcEE12_Alloc_hiderD1Ev	#
	movq	%rbx, %rax	# tmp97, D.70286
	movq	%rax, %rdi	# D.70286,
.LEHB95:
# SUCC:
	call	_Unwind_Resume@PLT	#
.LEHE95:
# BLOCK 9 seq:7
# PRED: 7 [always] 
.L198:
	movq	-24(%rbp), %rax	# D.70287, tmp99
	subq	%fs:40, %rax	# MEM[(<address-space-1> long unsigned int *)40B], tmp99
# SUCC: 11 10 (FALLTHRU)
	je	.L196	#,
# BLOCK 10 seq:8
# PRED: 9 (FALLTHRU)
# SUCC:
	call	__stack_chk_fail@PLT	#
# BLOCK 11 seq:9
# PRED: 9
.L196:
	movq	-8(%rbp), %rbx	#,
	leave	
	.cfi_def_cfa 7, 8
# SUCC: EXIT [always] 
	ret	
	.cfi_endproc
.LFE2821:
	.section	.gcc_except_table
.LLSDA2821:
	.byte	0xff	# @LPStart format (omit)
	.byte	0xff	# @TType format (omit)
	.byte	0x1	# call-site format (uleb128)
	.uleb128 .LLSDACSE2821-.LLSDACSB2821	# Call-site table length
.LLSDACSB2821:
	.uleb128 .LEHB93-.LFB2821	# region 0 start
	.uleb128 .LEHE93-.LEHB93	# length
	.uleb128 0	# landing pad
	.uleb128 0	# action
	.uleb128 .LEHB94-.LFB2821	# region 1 start
	.uleb128 .LEHE94-.LEHB94	# length
	.uleb128 .L197-.LFB2821	# landing pad
	.uleb128 0	# action
	.uleb128 .LEHB95-.LFB2821	# region 2 start
	.uleb128 .LEHE95-.LEHB95	# length
	.uleb128 0	# landing pad
	.uleb128 0	# action
.LLSDACSE2821:
	.section	.text._ZNSt7__cxx1112basic_stringIcSt11char_traitsIcESaIcEEC2IS3_EEPKcRKS3_,"axG",@progbits,_ZNSt7__cxx1112basic_stringIcSt11char_traitsIcESaIcEEC5IS3_EEPKcRKS3_,comdat
	.size	_ZNSt7__cxx1112basic_stringIcSt11char_traitsIcESaIcEEC2IS3_EEPKcRKS3_, .-_ZNSt7__cxx1112basic_stringIcSt11char_traitsIcESaIcEEC2IS3_EEPKcRKS3_
	.weak	_ZNSt7__cxx1112basic_stringIcSt11char_traitsIcESaIcEEC1IS3_EEPKcRKS3_
	.set	_ZNSt7__cxx1112basic_stringIcSt11char_traitsIcESaIcEEC1IS3_EEPKcRKS3_,_ZNSt7__cxx1112basic_stringIcSt11char_traitsIcESaIcEEC2IS3_EEPKcRKS3_
	.section	.text._ZN5cgicc18HTMLBooleanElementINS_7htmlTagEEC2Ev,"axG",@progbits,_ZN5cgicc18HTMLBooleanElementINS_7htmlTagEEC5Ev,comdat
	.align 2
	.weak	_ZN5cgicc18HTMLBooleanElementINS_7htmlTagEEC2Ev
	.type	_ZN5cgicc18HTMLBooleanElementINS_7htmlTagEEC2Ev, @function
_ZN5cgicc18HTMLBooleanElementINS_7htmlTagEEC2Ev:
.LFB2826:
	.cfi_startproc
	endbr64	
# BLOCK 2 seq:0
# PRED: ENTRY (FALLTHRU)
	pushq	%rbp	#
	.cfi_def_cfa_offset 16
	.cfi_offset 6, -16
	movq	%rsp, %rbp	#,
	.cfi_def_cfa_register 6
	subq	$16, %rsp	#,
	movq	%rdi, -8(%rbp)	# this, this
# ../cgicc/HTMLBooleanElement.h:76:       : HTMLElement(0, 0, 0, eBoolean)
	movq	-8(%rbp), %rax	# this, _1
	movl	$1, %r8d	#,
	movl	$0, %ecx	#,
	movl	$0, %edx	#,
	movl	$0, %esi	#,
	movq	%rax, %rdi	# _1,
	call	_ZN5cgicc11HTMLElementC2EPKNS_17HTMLAttributeListEPKS0_PKNSt7__cxx1112basic_stringIcSt11char_traitsIcESaIcEEENS0_12EElementTypeE@PLT	#
	leaq	16+_ZTVN5cgicc18HTMLBooleanElementINS_7htmlTagEEE(%rip), %rdx	#, _2
	movq	-8(%rbp), %rax	# this, tmp85
	movq	%rdx, (%rax)	# _2, this_5(D)->D.61443.D.60301._vptr.MStreamable
# ../cgicc/HTMLBooleanElement.h:77:     {}
	nop	
	leave	
	.cfi_def_cfa 7, 8
# SUCC: EXIT [always] 
	ret	
	.cfi_endproc
.LFE2826:
	.size	_ZN5cgicc18HTMLBooleanElementINS_7htmlTagEEC2Ev, .-_ZN5cgicc18HTMLBooleanElementINS_7htmlTagEEC2Ev
	.weak	_ZN5cgicc18HTMLBooleanElementINS_7htmlTagEEC1Ev
	.set	_ZN5cgicc18HTMLBooleanElementINS_7htmlTagEEC1Ev,_ZN5cgicc18HTMLBooleanElementINS_7htmlTagEEC2Ev
	.section	.text._ZN5cgicc18HTMLBooleanElementINS_7htmlTagEED2Ev,"axG",@progbits,_ZN5cgicc18HTMLBooleanElementINS_7htmlTagEED5Ev,comdat
	.align 2
	.weak	_ZN5cgicc18HTMLBooleanElementINS_7htmlTagEED2Ev
	.type	_ZN5cgicc18HTMLBooleanElementINS_7htmlTagEED2Ev, @function
_ZN5cgicc18HTMLBooleanElementINS_7htmlTagEED2Ev:
.LFB2829:
	.cfi_startproc
	endbr64	
# BLOCK 2 seq:0
# PRED: ENTRY (FALLTHRU)
	pushq	%rbp	#
	.cfi_def_cfa_offset 16
	.cfi_offset 6, -16
	movq	%rsp, %rbp	#,
	.cfi_def_cfa_register 6
	subq	$16, %rsp	#,
	movq	%rdi, -8(%rbp)	# this, this
# ../cgicc/HTMLBooleanElement.h:130:     {}
	leaq	16+_ZTVN5cgicc18HTMLBooleanElementINS_7htmlTagEEE(%rip), %rdx	#, _1
	movq	-8(%rbp), %rax	# this, tmp84
	movq	%rdx, (%rax)	# _1, this_4(D)->D.61443.D.60301._vptr.MStreamable
	movq	-8(%rbp), %rax	# this, _2
	movq	%rax, %rdi	# _2,
	call	_ZN5cgicc11HTMLElementD2Ev@PLT	#
	nop	
	leave	
	.cfi_def_cfa 7, 8
# SUCC: EXIT [always] 
	ret	
	.cfi_endproc
.LFE2829:
	.size	_ZN5cgicc18HTMLBooleanElementINS_7htmlTagEED2Ev, .-_ZN5cgicc18HTMLBooleanElementINS_7htmlTagEED2Ev
	.weak	_ZN5cgicc18HTMLBooleanElementINS_7htmlTagEED1Ev
	.set	_ZN5cgicc18HTMLBooleanElementINS_7htmlTagEED1Ev,_ZN5cgicc18HTMLBooleanElementINS_7htmlTagEED2Ev
	.section	.text._ZN5cgicc18HTMLBooleanElementINS_7htmlTagEED0Ev,"axG",@progbits,_ZN5cgicc18HTMLBooleanElementINS_7htmlTagEED5Ev,comdat
	.align 2
	.weak	_ZN5cgicc18HTMLBooleanElementINS_7htmlTagEED0Ev
	.type	_ZN5cgicc18HTMLBooleanElementINS_7htmlTagEED0Ev, @function
_ZN5cgicc18HTMLBooleanElementINS_7htmlTagEED0Ev:
.LFB2831:
	.cfi_startproc
	endbr64	
# BLOCK 2 seq:0
# PRED: ENTRY (FALLTHRU)
	pushq	%rbp	#
	.cfi_def_cfa_offset 16
	.cfi_offset 6, -16
	movq	%rsp, %rbp	#,
	.cfi_def_cfa_register 6
	subq	$16, %rsp	#,
	movq	%rdi, -8(%rbp)	# this, this
# ../cgicc/HTMLBooleanElement.h:130:     {}
	movq	-8(%rbp), %rax	# this, tmp82
	movq	%rax, %rdi	# tmp82,
	call	_ZN5cgicc18HTMLBooleanElementINS_7htmlTagEED1Ev	#
	movq	-8(%rbp), %rax	# this, tmp83
	movl	$64, %esi	#,
	movq	%rax, %rdi	# tmp83,
	call	_ZdlPvm@PLT	#
	leave	
	.cfi_def_cfa 7, 8
# SUCC: EXIT [always] 
	ret	
	.cfi_endproc
.LFE2831:
	.size	_ZN5cgicc18HTMLBooleanElementINS_7htmlTagEED0Ev, .-_ZN5cgicc18HTMLBooleanElementINS_7htmlTagEED0Ev
	.section	.text._ZN5cgicc18HTMLBooleanElementINS_7headTagEEC2Ev,"axG",@progbits,_ZN5cgicc18HTMLBooleanElementINS_7headTagEEC5Ev,comdat
	.align 2
	.weak	_ZN5cgicc18HTMLBooleanElementINS_7headTagEEC2Ev
	.type	_ZN5cgicc18HTMLBooleanElementINS_7headTagEEC2Ev, @function
_ZN5cgicc18HTMLBooleanElementINS_7headTagEEC2Ev:
.LFB2833:
	.cfi_startproc
	endbr64	
# BLOCK 2 seq:0
# PRED: ENTRY (FALLTHRU)
	pushq	%rbp	#
	.cfi_def_cfa_offset 16
	.cfi_offset 6, -16
	movq	%rsp, %rbp	#,
	.cfi_def_cfa_register 6
	subq	$16, %rsp	#,
	movq	%rdi, -8(%rbp)	# this, this
# ../cgicc/HTMLBooleanElement.h:76:       : HTMLElement(0, 0, 0, eBoolean)
	movq	-8(%rbp), %rax	# this, _1
	movl	$1, %r8d	#,
	movl	$0, %ecx	#,
	movl	$0, %edx	#,
	movl	$0, %esi	#,
	movq	%rax, %rdi	# _1,
	call	_ZN5cgicc11HTMLElementC2EPKNS_17HTMLAttributeListEPKS0_PKNSt7__cxx1112basic_stringIcSt11char_traitsIcESaIcEEENS0_12EElementTypeE@PLT	#
	leaq	16+_ZTVN5cgicc18HTMLBooleanElementINS_7headTagEEE(%rip), %rdx	#, _2
	movq	-8(%rbp), %rax	# this, tmp85
	movq	%rdx, (%rax)	# _2, this_5(D)->D.61543.D.60301._vptr.MStreamable
# ../cgicc/HTMLBooleanElement.h:77:     {}
	nop	
	leave	
	.cfi_def_cfa 7, 8
# SUCC: EXIT [always] 
	ret	
	.cfi_endproc
.LFE2833:
	.size	_ZN5cgicc18HTMLBooleanElementINS_7headTagEEC2Ev, .-_ZN5cgicc18HTMLBooleanElementINS_7headTagEEC2Ev
	.weak	_ZN5cgicc18HTMLBooleanElementINS_7headTagEEC1Ev
	.set	_ZN5cgicc18HTMLBooleanElementINS_7headTagEEC1Ev,_ZN5cgicc18HTMLBooleanElementINS_7headTagEEC2Ev
	.section	.text._ZN5cgicc18HTMLBooleanElementINS_7headTagEED2Ev,"axG",@progbits,_ZN5cgicc18HTMLBooleanElementINS_7headTagEED5Ev,comdat
	.align 2
	.weak	_ZN5cgicc18HTMLBooleanElementINS_7headTagEED2Ev
	.type	_ZN5cgicc18HTMLBooleanElementINS_7headTagEED2Ev, @function
_ZN5cgicc18HTMLBooleanElementINS_7headTagEED2Ev:
.LFB2836:
	.cfi_startproc
	endbr64	
# BLOCK 2 seq:0
# PRED: ENTRY (FALLTHRU)
	pushq	%rbp	#
	.cfi_def_cfa_offset 16
	.cfi_offset 6, -16
	movq	%rsp, %rbp	#,
	.cfi_def_cfa_register 6
	subq	$16, %rsp	#,
	movq	%rdi, -8(%rbp)	# this, this
# ../cgicc/HTMLBooleanElement.h:130:     {}
	leaq	16+_ZTVN5cgicc18HTMLBooleanElementINS_7headTagEEE(%rip), %rdx	#, _1
	movq	-8(%rbp), %rax	# this, tmp84
	movq	%rdx, (%rax)	# _1, this_4(D)->D.61543.D.60301._vptr.MStreamable
	movq	-8(%rbp), %rax	# this, _2
	movq	%rax, %rdi	# _2,
	call	_ZN5cgicc11HTMLElementD2Ev@PLT	#
	nop	
	leave	
	.cfi_def_cfa 7, 8
# SUCC: EXIT [always] 
	ret	
	.cfi_endproc
.LFE2836:
	.size	_ZN5cgicc18HTMLBooleanElementINS_7headTagEED2Ev, .-_ZN5cgicc18HTMLBooleanElementINS_7headTagEED2Ev
	.weak	_ZN5cgicc18HTMLBooleanElementINS_7headTagEED1Ev
	.set	_ZN5cgicc18HTMLBooleanElementINS_7headTagEED1Ev,_ZN5cgicc18HTMLBooleanElementINS_7headTagEED2Ev
	.section	.text._ZN5cgicc18HTMLBooleanElementINS_7headTagEED0Ev,"axG",@progbits,_ZN5cgicc18HTMLBooleanElementINS_7headTagEED5Ev,comdat
	.align 2
	.weak	_ZN5cgicc18HTMLBooleanElementINS_7headTagEED0Ev
	.type	_ZN5cgicc18HTMLBooleanElementINS_7headTagEED0Ev, @function
_ZN5cgicc18HTMLBooleanElementINS_7headTagEED0Ev:
.LFB2838:
	.cfi_startproc
	endbr64	
# BLOCK 2 seq:0
# PRED: ENTRY (FALLTHRU)
	pushq	%rbp	#
	.cfi_def_cfa_offset 16
	.cfi_offset 6, -16
	movq	%rsp, %rbp	#,
	.cfi_def_cfa_register 6
	subq	$16, %rsp	#,
	movq	%rdi, -8(%rbp)	# this, this
# ../cgicc/HTMLBooleanElement.h:130:     {}
	movq	-8(%rbp), %rax	# this, tmp82
	movq	%rax, %rdi	# tmp82,
	call	_ZN5cgicc18HTMLBooleanElementINS_7headTagEED1Ev	#
	movq	-8(%rbp), %rax	# this, tmp83
	movl	$64, %esi	#,
	movq	%rax, %rdi	# tmp83,
	call	_ZdlPvm@PLT	#
	leave	
	.cfi_def_cfa 7, 8
# SUCC: EXIT [always] 
	ret	
	.cfi_endproc
.LFE2838:
	.size	_ZN5cgicc18HTMLBooleanElementINS_7headTagEED0Ev, .-_ZN5cgicc18HTMLBooleanElementINS_7headTagEED0Ev
	.section	.text._ZN5cgicc18HTMLBooleanElementINS_8titleTagEEC2Ev,"axG",@progbits,_ZN5cgicc18HTMLBooleanElementINS_8titleTagEEC5Ev,comdat
	.align 2
	.weak	_ZN5cgicc18HTMLBooleanElementINS_8titleTagEEC2Ev
	.type	_ZN5cgicc18HTMLBooleanElementINS_8titleTagEEC2Ev, @function
_ZN5cgicc18HTMLBooleanElementINS_8titleTagEEC2Ev:
.LFB2840:
	.cfi_startproc
	endbr64	
# BLOCK 2 seq:0
# PRED: ENTRY (FALLTHRU)
	pushq	%rbp	#
	.cfi_def_cfa_offset 16
	.cfi_offset 6, -16
	movq	%rsp, %rbp	#,
	.cfi_def_cfa_register 6
	subq	$16, %rsp	#,
	movq	%rdi, -8(%rbp)	# this, this
# ../cgicc/HTMLBooleanElement.h:76:       : HTMLElement(0, 0, 0, eBoolean)
	movq	-8(%rbp), %rax	# this, _1
	movl	$1, %r8d	#,
	movl	$0, %ecx	#,
	movl	$0, %edx	#,
	movl	$0, %esi	#,
	movq	%rax, %rdi	# _1,
	call	_ZN5cgicc11HTMLElementC2EPKNS_17HTMLAttributeListEPKS0_PKNSt7__cxx1112basic_stringIcSt11char_traitsIcESaIcEEENS0_12EElementTypeE@PLT	#
	leaq	16+_ZTVN5cgicc18HTMLBooleanElementINS_8titleTagEEE(%rip), %rdx	#, _2
	movq	-8(%rbp), %rax	# this, tmp85
	movq	%rdx, (%rax)	# _2, this_5(D)->D.61643.D.60301._vptr.MStreamable
# ../cgicc/HTMLBooleanElement.h:77:     {}
	nop	
	leave	
	.cfi_def_cfa 7, 8
# SUCC: EXIT [always] 
	ret	
	.cfi_endproc
.LFE2840:
	.size	_ZN5cgicc18HTMLBooleanElementINS_8titleTagEEC2Ev, .-_ZN5cgicc18HTMLBooleanElementINS_8titleTagEEC2Ev
	.weak	_ZN5cgicc18HTMLBooleanElementINS_8titleTagEEC1Ev
	.set	_ZN5cgicc18HTMLBooleanElementINS_8titleTagEEC1Ev,_ZN5cgicc18HTMLBooleanElementINS_8titleTagEEC2Ev
	.section	.text._ZN5cgicc18HTMLBooleanElementINS_8titleTagEED2Ev,"axG",@progbits,_ZN5cgicc18HTMLBooleanElementINS_8titleTagEED5Ev,comdat
	.align 2
	.weak	_ZN5cgicc18HTMLBooleanElementINS_8titleTagEED2Ev
	.type	_ZN5cgicc18HTMLBooleanElementINS_8titleTagEED2Ev, @function
_ZN5cgicc18HTMLBooleanElementINS_8titleTagEED2Ev:
.LFB2843:
	.cfi_startproc
	endbr64	
# BLOCK 2 seq:0
# PRED: ENTRY (FALLTHRU)
	pushq	%rbp	#
	.cfi_def_cfa_offset 16
	.cfi_offset 6, -16
	movq	%rsp, %rbp	#,
	.cfi_def_cfa_register 6
	subq	$16, %rsp	#,
	movq	%rdi, -8(%rbp)	# this, this
# ../cgicc/HTMLBooleanElement.h:130:     {}
	leaq	16+_ZTVN5cgicc18HTMLBooleanElementINS_8titleTagEEE(%rip), %rdx	#, _1
	movq	-8(%rbp), %rax	# this, tmp84
	movq	%rdx, (%rax)	# _1, this_4(D)->D.61643.D.60301._vptr.MStreamable
	movq	-8(%rbp), %rax	# this, _2
	movq	%rax, %rdi	# _2,
	call	_ZN5cgicc11HTMLElementD2Ev@PLT	#
	nop	
	leave	
	.cfi_def_cfa 7, 8
# SUCC: EXIT [always] 
	ret	
	.cfi_endproc
.LFE2843:
	.size	_ZN5cgicc18HTMLBooleanElementINS_8titleTagEED2Ev, .-_ZN5cgicc18HTMLBooleanElementINS_8titleTagEED2Ev
	.weak	_ZN5cgicc18HTMLBooleanElementINS_8titleTagEED1Ev
	.set	_ZN5cgicc18HTMLBooleanElementINS_8titleTagEED1Ev,_ZN5cgicc18HTMLBooleanElementINS_8titleTagEED2Ev
	.section	.text._ZN5cgicc18HTMLBooleanElementINS_8titleTagEED0Ev,"axG",@progbits,_ZN5cgicc18HTMLBooleanElementINS_8titleTagEED5Ev,comdat
	.align 2
	.weak	_ZN5cgicc18HTMLBooleanElementINS_8titleTagEED0Ev
	.type	_ZN5cgicc18HTMLBooleanElementINS_8titleTagEED0Ev, @function
_ZN5cgicc18HTMLBooleanElementINS_8titleTagEED0Ev:
.LFB2845:
	.cfi_startproc
	endbr64	
# BLOCK 2 seq:0
# PRED: ENTRY (FALLTHRU)
	pushq	%rbp	#
	.cfi_def_cfa_offset 16
	.cfi_offset 6, -16
	movq	%rsp, %rbp	#,
	.cfi_def_cfa_register 6
	subq	$16, %rsp	#,
	movq	%rdi, -8(%rbp)	# this, this
# ../cgicc/HTMLBooleanElement.h:130:     {}
	movq	-8(%rbp), %rax	# this, tmp82
	movq	%rax, %rdi	# tmp82,
	call	_ZN5cgicc18HTMLBooleanElementINS_8titleTagEED1Ev	#
	movq	-8(%rbp), %rax	# this, tmp83
	movl	$64, %esi	#,
	movq	%rax, %rdi	# tmp83,
	call	_ZdlPvm@PLT	#
	leave	
	.cfi_def_cfa 7, 8
# SUCC: EXIT [always] 
	ret	
	.cfi_endproc
.LFE2845:
	.size	_ZN5cgicc18HTMLBooleanElementINS_8titleTagEED0Ev, .-_ZN5cgicc18HTMLBooleanElementINS_8titleTagEED0Ev
	.section	.text._ZN5cgicc18HTMLBooleanElementINS_7bodyTagEEC2Ev,"axG",@progbits,_ZN5cgicc18HTMLBooleanElementINS_7bodyTagEEC5Ev,comdat
	.align 2
	.weak	_ZN5cgicc18HTMLBooleanElementINS_7bodyTagEEC2Ev
	.type	_ZN5cgicc18HTMLBooleanElementINS_7bodyTagEEC2Ev, @function
_ZN5cgicc18HTMLBooleanElementINS_7bodyTagEEC2Ev:
.LFB2847:
	.cfi_startproc
	endbr64	
# BLOCK 2 seq:0
# PRED: ENTRY (FALLTHRU)
	pushq	%rbp	#
	.cfi_def_cfa_offset 16
	.cfi_offset 6, -16
	movq	%rsp, %rbp	#,
	.cfi_def_cfa_register 6
	subq	$16, %rsp	#,
	movq	%rdi, -8(%rbp)	# this, this
# ../cgicc/HTMLBooleanElement.h:76:       : HTMLElement(0, 0, 0, eBoolean)
	movq	-8(%rbp), %rax	# this, _1
	movl	$1, %r8d	#,
	movl	$0, %ecx	#,
	movl	$0, %edx	#,
	movl	$0, %esi	#,
	movq	%rax, %rdi	# _1,
	call	_ZN5cgicc11HTMLElementC2EPKNS_17HTMLAttributeListEPKS0_PKNSt7__cxx1112basic_stringIcSt11char_traitsIcESaIcEEENS0_12EElementTypeE@PLT	#
	leaq	16+_ZTVN5cgicc18HTMLBooleanElementINS_7bodyTagEEE(%rip), %rdx	#, _2
	movq	-8(%rbp), %rax	# this, tmp85
	movq	%rdx, (%rax)	# _2, this_5(D)->D.61745.D.60301._vptr.MStreamable
# ../cgicc/HTMLBooleanElement.h:77:     {}
	nop	
	leave	
	.cfi_def_cfa 7, 8
# SUCC: EXIT [always] 
	ret	
	.cfi_endproc
.LFE2847:
	.size	_ZN5cgicc18HTMLBooleanElementINS_7bodyTagEEC2Ev, .-_ZN5cgicc18HTMLBooleanElementINS_7bodyTagEEC2Ev
	.weak	_ZN5cgicc18HTMLBooleanElementINS_7bodyTagEEC1Ev
	.set	_ZN5cgicc18HTMLBooleanElementINS_7bodyTagEEC1Ev,_ZN5cgicc18HTMLBooleanElementINS_7bodyTagEEC2Ev
	.section	.text._ZN5cgicc18HTMLBooleanElementINS_7bodyTagEED2Ev,"axG",@progbits,_ZN5cgicc18HTMLBooleanElementINS_7bodyTagEED5Ev,comdat
	.align 2
	.weak	_ZN5cgicc18HTMLBooleanElementINS_7bodyTagEED2Ev
	.type	_ZN5cgicc18HTMLBooleanElementINS_7bodyTagEED2Ev, @function
_ZN5cgicc18HTMLBooleanElementINS_7bodyTagEED2Ev:
.LFB2850:
	.cfi_startproc
	endbr64	
# BLOCK 2 seq:0
# PRED: ENTRY (FALLTHRU)
	pushq	%rbp	#
	.cfi_def_cfa_offset 16
	.cfi_offset 6, -16
	movq	%rsp, %rbp	#,
	.cfi_def_cfa_register 6
	subq	$16, %rsp	#,
	movq	%rdi, -8(%rbp)	# this, this
# ../cgicc/HTMLBooleanElement.h:130:     {}
	leaq	16+_ZTVN5cgicc18HTMLBooleanElementINS_7bodyTagEEE(%rip), %rdx	#, _1
	movq	-8(%rbp), %rax	# this, tmp84
	movq	%rdx, (%rax)	# _1, this_4(D)->D.61745.D.60301._vptr.MStreamable
	movq	-8(%rbp), %rax	# this, _2
	movq	%rax, %rdi	# _2,
	call	_ZN5cgicc11HTMLElementD2Ev@PLT	#
	nop	
	leave	
	.cfi_def_cfa 7, 8
# SUCC: EXIT [always] 
	ret	
	.cfi_endproc
.LFE2850:
	.size	_ZN5cgicc18HTMLBooleanElementINS_7bodyTagEED2Ev, .-_ZN5cgicc18HTMLBooleanElementINS_7bodyTagEED2Ev
	.weak	_ZN5cgicc18HTMLBooleanElementINS_7bodyTagEED1Ev
	.set	_ZN5cgicc18HTMLBooleanElementINS_7bodyTagEED1Ev,_ZN5cgicc18HTMLBooleanElementINS_7bodyTagEED2Ev
	.section	.text._ZN5cgicc18HTMLBooleanElementINS_7bodyTagEED0Ev,"axG",@progbits,_ZN5cgicc18HTMLBooleanElementINS_7bodyTagEED5Ev,comdat
	.align 2
	.weak	_ZN5cgicc18HTMLBooleanElementINS_7bodyTagEED0Ev
	.type	_ZN5cgicc18HTMLBooleanElementINS_7bodyTagEED0Ev, @function
_ZN5cgicc18HTMLBooleanElementINS_7bodyTagEED0Ev:
.LFB2852:
	.cfi_startproc
	endbr64	
# BLOCK 2 seq:0
# PRED: ENTRY (FALLTHRU)
	pushq	%rbp	#
	.cfi_def_cfa_offset 16
	.cfi_offset 6, -16
	movq	%rsp, %rbp	#,
	.cfi_def_cfa_register 6
	subq	$16, %rsp	#,
	movq	%rdi, -8(%rbp)	# this, this
# ../cgicc/HTMLBooleanElement.h:130:     {}
	movq	-8(%rbp), %rax	# this, tmp82
	movq	%rax, %rdi	# tmp82,
	call	_ZN5cgicc18HTMLBooleanElementINS_7bodyTagEED1Ev	#
	movq	-8(%rbp), %rax	# this, tmp83
	movl	$64, %esi	#,
	movq	%rax, %rdi	# tmp83,
	call	_ZdlPvm@PLT	#
	leave	
	.cfi_def_cfa 7, 8
# SUCC: EXIT [always] 
	ret	
	.cfi_endproc
.LFE2852:
	.size	_ZN5cgicc18HTMLBooleanElementINS_7bodyTagEED0Ev, .-_ZN5cgicc18HTMLBooleanElementINS_7bodyTagEED0Ev
	.section	.text._ZN5cgicc18HTMLBooleanElementINS_5h1TagEEC2Ev,"axG",@progbits,_ZN5cgicc18HTMLBooleanElementINS_5h1TagEEC5Ev,comdat
	.align 2
	.weak	_ZN5cgicc18HTMLBooleanElementINS_5h1TagEEC2Ev
	.type	_ZN5cgicc18HTMLBooleanElementINS_5h1TagEEC2Ev, @function
_ZN5cgicc18HTMLBooleanElementINS_5h1TagEEC2Ev:
.LFB2854:
	.cfi_startproc
	endbr64	
# BLOCK 2 seq:0
# PRED: ENTRY (FALLTHRU)
	pushq	%rbp	#
	.cfi_def_cfa_offset 16
	.cfi_offset 6, -16
	movq	%rsp, %rbp	#,
	.cfi_def_cfa_register 6
	subq	$16, %rsp	#,
	movq	%rdi, -8(%rbp)	# this, this
# ../cgicc/HTMLBooleanElement.h:76:       : HTMLElement(0, 0, 0, eBoolean)
	movq	-8(%rbp), %rax	# this, _1
	movl	$1, %r8d	#,
	movl	$0, %ecx	#,
	movl	$0, %edx	#,
	movl	$0, %esi	#,
	movq	%rax, %rdi	# _1,
	call	_ZN5cgicc11HTMLElementC2EPKNS_17HTMLAttributeListEPKS0_PKNSt7__cxx1112basic_stringIcSt11char_traitsIcESaIcEEENS0_12EElementTypeE@PLT	#
	leaq	16+_ZTVN5cgicc18HTMLBooleanElementINS_5h1TagEEE(%rip), %rdx	#, _2
	movq	-8(%rbp), %rax	# this, tmp85
	movq	%rdx, (%rax)	# _2, this_5(D)->D.61845.D.60301._vptr.MStreamable
# ../cgicc/HTMLBooleanElement.h:77:     {}
	nop	
	leave	
	.cfi_def_cfa 7, 8
# SUCC: EXIT [always] 
	ret	
	.cfi_endproc
.LFE2854:
	.size	_ZN5cgicc18HTMLBooleanElementINS_5h1TagEEC2Ev, .-_ZN5cgicc18HTMLBooleanElementINS_5h1TagEEC2Ev
	.weak	_ZN5cgicc18HTMLBooleanElementINS_5h1TagEEC1Ev
	.set	_ZN5cgicc18HTMLBooleanElementINS_5h1TagEEC1Ev,_ZN5cgicc18HTMLBooleanElementINS_5h1TagEEC2Ev
	.section	.text._ZN5cgicc18HTMLBooleanElementINS_5h1TagEED2Ev,"axG",@progbits,_ZN5cgicc18HTMLBooleanElementINS_5h1TagEED5Ev,comdat
	.align 2
	.weak	_ZN5cgicc18HTMLBooleanElementINS_5h1TagEED2Ev
	.type	_ZN5cgicc18HTMLBooleanElementINS_5h1TagEED2Ev, @function
_ZN5cgicc18HTMLBooleanElementINS_5h1TagEED2Ev:
.LFB2857:
	.cfi_startproc
	endbr64	
# BLOCK 2 seq:0
# PRED: ENTRY (FALLTHRU)
	pushq	%rbp	#
	.cfi_def_cfa_offset 16
	.cfi_offset 6, -16
	movq	%rsp, %rbp	#,
	.cfi_def_cfa_register 6
	subq	$16, %rsp	#,
	movq	%rdi, -8(%rbp)	# this, this
# ../cgicc/HTMLBooleanElement.h:130:     {}
	leaq	16+_ZTVN5cgicc18HTMLBooleanElementINS_5h1TagEEE(%rip), %rdx	#, _1
	movq	-8(%rbp), %rax	# this, tmp84
	movq	%rdx, (%rax)	# _1, this_4(D)->D.61845.D.60301._vptr.MStreamable
	movq	-8(%rbp), %rax	# this, _2
	movq	%rax, %rdi	# _2,
	call	_ZN5cgicc11HTMLElementD2Ev@PLT	#
	nop	
	leave	
	.cfi_def_cfa 7, 8
# SUCC: EXIT [always] 
	ret	
	.cfi_endproc
.LFE2857:
	.size	_ZN5cgicc18HTMLBooleanElementINS_5h1TagEED2Ev, .-_ZN5cgicc18HTMLBooleanElementINS_5h1TagEED2Ev
	.weak	_ZN5cgicc18HTMLBooleanElementINS_5h1TagEED1Ev
	.set	_ZN5cgicc18HTMLBooleanElementINS_5h1TagEED1Ev,_ZN5cgicc18HTMLBooleanElementINS_5h1TagEED2Ev
	.section	.text._ZN5cgicc18HTMLBooleanElementINS_5h1TagEED0Ev,"axG",@progbits,_ZN5cgicc18HTMLBooleanElementINS_5h1TagEED5Ev,comdat
	.align 2
	.weak	_ZN5cgicc18HTMLBooleanElementINS_5h1TagEED0Ev
	.type	_ZN5cgicc18HTMLBooleanElementINS_5h1TagEED0Ev, @function
_ZN5cgicc18HTMLBooleanElementINS_5h1TagEED0Ev:
.LFB2859:
	.cfi_startproc
	endbr64	
# BLOCK 2 seq:0
# PRED: ENTRY (FALLTHRU)
	pushq	%rbp	#
	.cfi_def_cfa_offset 16
	.cfi_offset 6, -16
	movq	%rsp, %rbp	#,
	.cfi_def_cfa_register 6
	subq	$16, %rsp	#,
	movq	%rdi, -8(%rbp)	# this, this
# ../cgicc/HTMLBooleanElement.h:130:     {}
	movq	-8(%rbp), %rax	# this, tmp82
	movq	%rax, %rdi	# tmp82,
	call	_ZN5cgicc18HTMLBooleanElementINS_5h1TagEED1Ev	#
	movq	-8(%rbp), %rax	# this, tmp83
	movl	$64, %esi	#,
	movq	%rax, %rdi	# tmp83,
	call	_ZdlPvm@PLT	#
	leave	
	.cfi_def_cfa 7, 8
# SUCC: EXIT [always] 
	ret	
	.cfi_endproc
.LFE2859:
	.size	_ZN5cgicc18HTMLBooleanElementINS_5h1TagEED0Ev, .-_ZN5cgicc18HTMLBooleanElementINS_5h1TagEED0Ev
	.section	.text._ZN5cgicc17HTMLAtomicElementINS_5brTagEEC2Ev,"axG",@progbits,_ZN5cgicc17HTMLAtomicElementINS_5brTagEEC5Ev,comdat
	.align 2
	.weak	_ZN5cgicc17HTMLAtomicElementINS_5brTagEEC2Ev
	.type	_ZN5cgicc17HTMLAtomicElementINS_5brTagEEC2Ev, @function
_ZN5cgicc17HTMLAtomicElementINS_5brTagEEC2Ev:
.LFB2861:
	.cfi_startproc
	endbr64	
# BLOCK 2 seq:0
# PRED: ENTRY (FALLTHRU)
	pushq	%rbp	#
	.cfi_def_cfa_offset 16
	.cfi_offset 6, -16
	movq	%rsp, %rbp	#,
	.cfi_def_cfa_register 6
	subq	$16, %rsp	#,
	movq	%rdi, -8(%rbp)	# this, this
# ../cgicc/HTMLAtomicElement.h:70:       : HTMLElement(0, 0, 0, eAtomic)
	movq	-8(%rbp), %rax	# this, _1
	movl	$0, %r8d	#,
	movl	$0, %ecx	#,
	movl	$0, %edx	#,
	movl	$0, %esi	#,
	movq	%rax, %rdi	# _1,
	call	_ZN5cgicc11HTMLElementC2EPKNS_17HTMLAttributeListEPKS0_PKNSt7__cxx1112basic_stringIcSt11char_traitsIcESaIcEEENS0_12EElementTypeE@PLT	#
	leaq	16+_ZTVN5cgicc17HTMLAtomicElementINS_5brTagEEE(%rip), %rdx	#, _2
	movq	-8(%rbp), %rax	# this, tmp85
	movq	%rdx, (%rax)	# _2, this_5(D)->D.61899.D.60301._vptr.MStreamable
# ../cgicc/HTMLAtomicElement.h:71:     {}
	nop	
	leave	
	.cfi_def_cfa 7, 8
# SUCC: EXIT [always] 
	ret	
	.cfi_endproc
.LFE2861:
	.size	_ZN5cgicc17HTMLAtomicElementINS_5brTagEEC2Ev, .-_ZN5cgicc17HTMLAtomicElementINS_5brTagEEC2Ev
	.weak	_ZN5cgicc17HTMLAtomicElementINS_5brTagEEC1Ev
	.set	_ZN5cgicc17HTMLAtomicElementINS_5brTagEEC1Ev,_ZN5cgicc17HTMLAtomicElementINS_5brTagEEC2Ev
	.section	.text._ZN5cgicc17HTMLAtomicElementINS_5brTagEED2Ev,"axG",@progbits,_ZN5cgicc17HTMLAtomicElementINS_5brTagEED5Ev,comdat
	.align 2
	.weak	_ZN5cgicc17HTMLAtomicElementINS_5brTagEED2Ev
	.type	_ZN5cgicc17HTMLAtomicElementINS_5brTagEED2Ev, @function
_ZN5cgicc17HTMLAtomicElementINS_5brTagEED2Ev:
.LFB2864:
	.cfi_startproc
	endbr64	
# BLOCK 2 seq:0
# PRED: ENTRY (FALLTHRU)
	pushq	%rbp	#
	.cfi_def_cfa_offset 16
	.cfi_offset 6, -16
	movq	%rsp, %rbp	#,
	.cfi_def_cfa_register 6
	subq	$16, %rsp	#,
	movq	%rdi, -8(%rbp)	# this, this
# ../cgicc/HTMLAtomicElement.h:88:     {}
	leaq	16+_ZTVN5cgicc17HTMLAtomicElementINS_5brTagEEE(%rip), %rdx	#, _1
	movq	-8(%rbp), %rax	# this, tmp84
	movq	%rdx, (%rax)	# _1, this_4(D)->D.61899.D.60301._vptr.MStreamable
	movq	-8(%rbp), %rax	# this, _2
	movq	%rax, %rdi	# _2,
	call	_ZN5cgicc11HTMLElementD2Ev@PLT	#
	nop	
	leave	
	.cfi_def_cfa 7, 8
# SUCC: EXIT [always] 
	ret	
	.cfi_endproc
.LFE2864:
	.size	_ZN5cgicc17HTMLAtomicElementINS_5brTagEED2Ev, .-_ZN5cgicc17HTMLAtomicElementINS_5brTagEED2Ev
	.weak	_ZN5cgicc17HTMLAtomicElementINS_5brTagEED1Ev
	.set	_ZN5cgicc17HTMLAtomicElementINS_5brTagEED1Ev,_ZN5cgicc17HTMLAtomicElementINS_5brTagEED2Ev
	.section	.text._ZN5cgicc17HTMLAtomicElementINS_5brTagEED0Ev,"axG",@progbits,_ZN5cgicc17HTMLAtomicElementINS_5brTagEED5Ev,comdat
	.align 2
	.weak	_ZN5cgicc17HTMLAtomicElementINS_5brTagEED0Ev
	.type	_ZN5cgicc17HTMLAtomicElementINS_5brTagEED0Ev, @function
_ZN5cgicc17HTMLAtomicElementINS_5brTagEED0Ev:
.LFB2866:
	.cfi_startproc
	endbr64	
# BLOCK 2 seq:0
# PRED: ENTRY (FALLTHRU)
	pushq	%rbp	#
	.cfi_def_cfa_offset 16
	.cfi_offset 6, -16
	movq	%rsp, %rbp	#,
	.cfi_def_cfa_register 6
	subq	$16, %rsp	#,
	movq	%rdi, -8(%rbp)	# this, this
# ../cgicc/HTMLAtomicElement.h:88:     {}
	movq	-8(%rbp), %rax	# this, tmp82
	movq	%rax, %rdi	# tmp82,
	call	_ZN5cgicc17HTMLAtomicElementINS_5brTagEED1Ev	#
	movq	-8(%rbp), %rax	# this, tmp83
	movl	$64, %esi	#,
	movq	%rax, %rdi	# tmp83,
	call	_ZdlPvm@PLT	#
	leave	
	.cfi_def_cfa 7, 8
# SUCC: EXIT [always] 
	ret	
	.cfi_endproc
.LFE2866:
	.size	_ZN5cgicc17HTMLAtomicElementINS_5brTagEED0Ev, .-_ZN5cgicc17HTMLAtomicElementINS_5brTagEED0Ev
	.section	.text._ZN5cgicc17HTMLAtomicElementINS_5hrTagEEC2Ev,"axG",@progbits,_ZN5cgicc17HTMLAtomicElementINS_5hrTagEEC5Ev,comdat
	.align 2
	.weak	_ZN5cgicc17HTMLAtomicElementINS_5hrTagEEC2Ev
	.type	_ZN5cgicc17HTMLAtomicElementINS_5hrTagEEC2Ev, @function
_ZN5cgicc17HTMLAtomicElementINS_5hrTagEEC2Ev:
.LFB2868:
	.cfi_startproc
	endbr64	
# BLOCK 2 seq:0
# PRED: ENTRY (FALLTHRU)
	pushq	%rbp	#
	.cfi_def_cfa_offset 16
	.cfi_offset 6, -16
	movq	%rsp, %rbp	#,
	.cfi_def_cfa_register 6
	subq	$16, %rsp	#,
	movq	%rdi, -8(%rbp)	# this, this
# ../cgicc/HTMLAtomicElement.h:70:       : HTMLElement(0, 0, 0, eAtomic)
	movq	-8(%rbp), %rax	# this, _1
	movl	$0, %r8d	#,
	movl	$0, %ecx	#,
	movl	$0, %edx	#,
	movl	$0, %esi	#,
	movq	%rax, %rdi	# _1,
	call	_ZN5cgicc11HTMLElementC2EPKNS_17HTMLAttributeListEPKS0_PKNSt7__cxx1112basic_stringIcSt11char_traitsIcESaIcEEENS0_12EElementTypeE@PLT	#
	leaq	16+_ZTVN5cgicc17HTMLAtomicElementINS_5hrTagEEE(%rip), %rdx	#, _2
	movq	-8(%rbp), %rax	# this, tmp85
	movq	%rdx, (%rax)	# _2, this_5(D)->D.61951.D.60301._vptr.MStreamable
# ../cgicc/HTMLAtomicElement.h:71:     {}
	nop	
	leave	
	.cfi_def_cfa 7, 8
# SUCC: EXIT [always] 
	ret	
	.cfi_endproc
.LFE2868:
	.size	_ZN5cgicc17HTMLAtomicElementINS_5hrTagEEC2Ev, .-_ZN5cgicc17HTMLAtomicElementINS_5hrTagEEC2Ev
	.weak	_ZN5cgicc17HTMLAtomicElementINS_5hrTagEEC1Ev
	.set	_ZN5cgicc17HTMLAtomicElementINS_5hrTagEEC1Ev,_ZN5cgicc17HTMLAtomicElementINS_5hrTagEEC2Ev
	.section	.text._ZN5cgicc17HTMLAtomicElementINS_5hrTagEED2Ev,"axG",@progbits,_ZN5cgicc17HTMLAtomicElementINS_5hrTagEED5Ev,comdat
	.align 2
	.weak	_ZN5cgicc17HTMLAtomicElementINS_5hrTagEED2Ev
	.type	_ZN5cgicc17HTMLAtomicElementINS_5hrTagEED2Ev, @function
_ZN5cgicc17HTMLAtomicElementINS_5hrTagEED2Ev:
.LFB2871:
	.cfi_startproc
	endbr64	
# BLOCK 2 seq:0
# PRED: ENTRY (FALLTHRU)
	pushq	%rbp	#
	.cfi_def_cfa_offset 16
	.cfi_offset 6, -16
	movq	%rsp, %rbp	#,
	.cfi_def_cfa_register 6
	subq	$16, %rsp	#,
	movq	%rdi, -8(%rbp)	# this, this
# ../cgicc/HTMLAtomicElement.h:88:     {}
	leaq	16+_ZTVN5cgicc17HTMLAtomicElementINS_5hrTagEEE(%rip), %rdx	#, _1
	movq	-8(%rbp), %rax	# this, tmp84
	movq	%rdx, (%rax)	# _1, this_4(D)->D.61951.D.60301._vptr.MStreamable
	movq	-8(%rbp), %rax	# this, _2
	movq	%rax, %rdi	# _2,
	call	_ZN5cgicc11HTMLElementD2Ev@PLT	#
	nop	
	leave	
	.cfi_def_cfa 7, 8
# SUCC: EXIT [always] 
	ret	
	.cfi_endproc
.LFE2871:
	.size	_ZN5cgicc17HTMLAtomicElementINS_5hrTagEED2Ev, .-_ZN5cgicc17HTMLAtomicElementINS_5hrTagEED2Ev
	.weak	_ZN5cgicc17HTMLAtomicElementINS_5hrTagEED1Ev
	.set	_ZN5cgicc17HTMLAtomicElementINS_5hrTagEED1Ev,_ZN5cgicc17HTMLAtomicElementINS_5hrTagEED2Ev
	.section	.text._ZN5cgicc17HTMLAtomicElementINS_5hrTagEED0Ev,"axG",@progbits,_ZN5cgicc17HTMLAtomicElementINS_5hrTagEED5Ev,comdat
	.align 2
	.weak	_ZN5cgicc17HTMLAtomicElementINS_5hrTagEED0Ev
	.type	_ZN5cgicc17HTMLAtomicElementINS_5hrTagEED0Ev, @function
_ZN5cgicc17HTMLAtomicElementINS_5hrTagEED0Ev:
.LFB2873:
	.cfi_startproc
	endbr64	
# BLOCK 2 seq:0
# PRED: ENTRY (FALLTHRU)
	pushq	%rbp	#
	.cfi_def_cfa_offset 16
	.cfi_offset 6, -16
	movq	%rsp, %rbp	#,
	.cfi_def_cfa_register 6
	subq	$16, %rsp	#,
	movq	%rdi, -8(%rbp)	# this, this
# ../cgicc/HTMLAtomicElement.h:88:     {}
	movq	-8(%rbp), %rax	# this, tmp82
	movq	%rax, %rdi	# tmp82,
	call	_ZN5cgicc17HTMLAtomicElementINS_5hrTagEED1Ev	#
	movq	-8(%rbp), %rax	# this, tmp83
	movl	$64, %esi	#,
	movq	%rax, %rdi	# tmp83,
	call	_ZdlPvm@PLT	#
	leave	
	.cfi_def_cfa 7, 8
# SUCC: EXIT [always] 
	ret	
	.cfi_endproc
.LFE2873:
	.size	_ZN5cgicc17HTMLAtomicElementINS_5hrTagEED0Ev, .-_ZN5cgicc17HTMLAtomicElementINS_5hrTagEED0Ev
	.section	.text._ZN5cgicc18HTMLBooleanElementINS_6divTagEEC2Ev,"axG",@progbits,_ZN5cgicc18HTMLBooleanElementINS_6divTagEEC5Ev,comdat
	.align 2
	.weak	_ZN5cgicc18HTMLBooleanElementINS_6divTagEEC2Ev
	.type	_ZN5cgicc18HTMLBooleanElementINS_6divTagEEC2Ev, @function
_ZN5cgicc18HTMLBooleanElementINS_6divTagEEC2Ev:
.LFB2875:
	.cfi_startproc
	endbr64	
# BLOCK 2 seq:0
# PRED: ENTRY (FALLTHRU)
	pushq	%rbp	#
	.cfi_def_cfa_offset 16
	.cfi_offset 6, -16
	movq	%rsp, %rbp	#,
	.cfi_def_cfa_register 6
	subq	$16, %rsp	#,
	movq	%rdi, -8(%rbp)	# this, this
# ../cgicc/HTMLBooleanElement.h:76:       : HTMLElement(0, 0, 0, eBoolean)
	movq	-8(%rbp), %rax	# this, _1
	movl	$1, %r8d	#,
	movl	$0, %ecx	#,
	movl	$0, %edx	#,
	movl	$0, %esi	#,
	movq	%rax, %rdi	# _1,
	call	_ZN5cgicc11HTMLElementC2EPKNS_17HTMLAttributeListEPKS0_PKNSt7__cxx1112basic_stringIcSt11char_traitsIcESaIcEEENS0_12EElementTypeE@PLT	#
	leaq	16+_ZTVN5cgicc18HTMLBooleanElementINS_6divTagEEE(%rip), %rdx	#, _2
	movq	-8(%rbp), %rax	# this, tmp85
	movq	%rdx, (%rax)	# _2, this_5(D)->D.62055.D.60301._vptr.MStreamable
# ../cgicc/HTMLBooleanElement.h:77:     {}
	nop	
	leave	
	.cfi_def_cfa 7, 8
# SUCC: EXIT [always] 
	ret	
	.cfi_endproc
.LFE2875:
	.size	_ZN5cgicc18HTMLBooleanElementINS_6divTagEEC2Ev, .-_ZN5cgicc18HTMLBooleanElementINS_6divTagEEC2Ev
	.weak	_ZN5cgicc18HTMLBooleanElementINS_6divTagEEC1Ev
	.set	_ZN5cgicc18HTMLBooleanElementINS_6divTagEEC1Ev,_ZN5cgicc18HTMLBooleanElementINS_6divTagEEC2Ev
	.section	.text._ZN5cgicc18HTMLBooleanElementINS_6divTagEED2Ev,"axG",@progbits,_ZN5cgicc18HTMLBooleanElementINS_6divTagEED5Ev,comdat
	.align 2
	.weak	_ZN5cgicc18HTMLBooleanElementINS_6divTagEED2Ev
	.type	_ZN5cgicc18HTMLBooleanElementINS_6divTagEED2Ev, @function
_ZN5cgicc18HTMLBooleanElementINS_6divTagEED2Ev:
.LFB2878:
	.cfi_startproc
	endbr64	
# BLOCK 2 seq:0
# PRED: ENTRY (FALLTHRU)
	pushq	%rbp	#
	.cfi_def_cfa_offset 16
	.cfi_offset 6, -16
	movq	%rsp, %rbp	#,
	.cfi_def_cfa_register 6
	subq	$16, %rsp	#,
	movq	%rdi, -8(%rbp)	# this, this
# ../cgicc/HTMLBooleanElement.h:130:     {}
	leaq	16+_ZTVN5cgicc18HTMLBooleanElementINS_6divTagEEE(%rip), %rdx	#, _1
	movq	-8(%rbp), %rax	# this, tmp84
	movq	%rdx, (%rax)	# _1, this_4(D)->D.62055.D.60301._vptr.MStreamable
	movq	-8(%rbp), %rax	# this, _2
	movq	%rax, %rdi	# _2,
	call	_ZN5cgicc11HTMLElementD2Ev@PLT	#
	nop	
	leave	
	.cfi_def_cfa 7, 8
# SUCC: EXIT [always] 
	ret	
	.cfi_endproc
.LFE2878:
	.size	_ZN5cgicc18HTMLBooleanElementINS_6divTagEED2Ev, .-_ZN5cgicc18HTMLBooleanElementINS_6divTagEED2Ev
	.weak	_ZN5cgicc18HTMLBooleanElementINS_6divTagEED1Ev
	.set	_ZN5cgicc18HTMLBooleanElementINS_6divTagEED1Ev,_ZN5cgicc18HTMLBooleanElementINS_6divTagEED2Ev
	.section	.text._ZN5cgicc18HTMLBooleanElementINS_6divTagEED0Ev,"axG",@progbits,_ZN5cgicc18HTMLBooleanElementINS_6divTagEED5Ev,comdat
	.align 2
	.weak	_ZN5cgicc18HTMLBooleanElementINS_6divTagEED0Ev
	.type	_ZN5cgicc18HTMLBooleanElementINS_6divTagEED0Ev, @function
_ZN5cgicc18HTMLBooleanElementINS_6divTagEED0Ev:
.LFB2880:
	.cfi_startproc
	endbr64	
# BLOCK 2 seq:0
# PRED: ENTRY (FALLTHRU)
	pushq	%rbp	#
	.cfi_def_cfa_offset 16
	.cfi_offset 6, -16
	movq	%rsp, %rbp	#,
	.cfi_def_cfa_register 6
	subq	$16, %rsp	#,
	movq	%rdi, -8(%rbp)	# this, this
# ../cgicc/HTMLBooleanElement.h:130:     {}
	movq	-8(%rbp), %rax	# this, tmp82
	movq	%rax, %rdi	# tmp82,
	call	_ZN5cgicc18HTMLBooleanElementINS_6divTagEED1Ev	#
	movq	-8(%rbp), %rax	# this, tmp83
	movl	$64, %esi	#,
	movq	%rax, %rdi	# tmp83,
	call	_ZdlPvm@PLT	#
	leave	
	.cfi_def_cfa 7, 8
# SUCC: EXIT [always] 
	ret	
	.cfi_endproc
.LFE2880:
	.size	_ZN5cgicc18HTMLBooleanElementINS_6divTagEED0Ev, .-_ZN5cgicc18HTMLBooleanElementINS_6divTagEED0Ev
	.section	.text._ZSteqIcSt11char_traitsIcESaIcEEbRKNSt7__cxx1112basic_stringIT_T0_T1_EEPKS5_,"axG",@progbits,_ZSteqIcSt11char_traitsIcESaIcEEbRKNSt7__cxx1112basic_stringIT_T0_T1_EEPKS5_,comdat
	.weak	_ZSteqIcSt11char_traitsIcESaIcEEbRKNSt7__cxx1112basic_stringIT_T0_T1_EEPKS5_
	.type	_ZSteqIcSt11char_traitsIcESaIcEEbRKNSt7__cxx1112basic_stringIT_T0_T1_EEPKS5_, @function
_ZSteqIcSt11char_traitsIcESaIcEEbRKNSt7__cxx1112basic_stringIT_T0_T1_EEPKS5_:
.LFB2881:
	.cfi_startproc
	endbr64	
# BLOCK 2 seq:0
# PRED: ENTRY (FALLTHRU)
	pushq	%rbp	#
	.cfi_def_cfa_offset 16
	.cfi_offset 6, -16
	movq	%rsp, %rbp	#,
	.cfi_def_cfa_register 6
	subq	$16, %rsp	#,
	movq	%rdi, -8(%rbp)	# __lhs, __lhs
	movq	%rsi, -16(%rbp)	# __rhs, __rhs
# /usr/include/c++/11/bits/basic_string.h:6250:     { return __lhs.compare(__rhs) == 0; }
	movq	-16(%rbp), %rdx	# __rhs, tmp85
	movq	-8(%rbp), %rax	# __lhs, tmp86
	movq	%rdx, %rsi	# tmp85,
	movq	%rax, %rdi	# tmp86,
	call	_ZNKSt7__cxx1112basic_stringIcSt11char_traitsIcESaIcEE7compareEPKc@PLT	#
# /usr/include/c++/11/bits/basic_string.h:6250:     { return __lhs.compare(__rhs) == 0; }
	testl	%eax, %eax	# _1
	sete	%al	#, _6
# /usr/include/c++/11/bits/basic_string.h:6250:     { return __lhs.compare(__rhs) == 0; }
	leave	
	.cfi_def_cfa 7, 8
# SUCC: EXIT [always] 
	ret	
	.cfi_endproc
.LFE2881:
	.size	_ZSteqIcSt11char_traitsIcESaIcEEbRKNSt7__cxx1112basic_stringIT_T0_T1_EEPKS5_, .-_ZSteqIcSt11char_traitsIcESaIcEEbRKNSt7__cxx1112basic_stringIT_T0_T1_EEPKS5_
	.section	.text._ZNKSt6vectorIN5cgicc10HTTPCookieESaIS1_EE5beginEv,"axG",@progbits,_ZNKSt6vectorIN5cgicc10HTTPCookieESaIS1_EE5beginEv,comdat
	.align 2
	.weak	_ZNKSt6vectorIN5cgicc10HTTPCookieESaIS1_EE5beginEv
	.type	_ZNKSt6vectorIN5cgicc10HTTPCookieESaIS1_EE5beginEv, @function
_ZNKSt6vectorIN5cgicc10HTTPCookieESaIS1_EE5beginEv:
.LFB2882:
	.cfi_startproc
	endbr64	
# BLOCK 2 seq:0
# PRED: ENTRY (FALLTHRU)
	pushq	%rbp	#
	.cfi_def_cfa_offset 16
	.cfi_offset 6, -16
	movq	%rsp, %rbp	#,
	.cfi_def_cfa_register 6
	subq	$32, %rsp	#,
	movq	%rdi, -24(%rbp)	# this, this
# /usr/include/c++/11/bits/stl_vector.h:820:       begin() const _GLIBCXX_NOEXCEPT
	movq	%fs:40, %rax	# MEM[(<address-space-1> long unsigned int *)40B], tmp87
	movq	%rax, -8(%rbp)	# tmp87, D.70288
	xorl	%eax, %eax	# tmp87
# /usr/include/c++/11/bits/stl_vector.h:821:       { return const_iterator(this->_M_impl._M_start); }
	movq	-24(%rbp), %rdx	# this, _1
# /usr/include/c++/11/bits/stl_vector.h:821:       { return const_iterator(this->_M_impl._M_start); }
	leaq	-16(%rbp), %rax	#, tmp85
	movq	%rdx, %rsi	# _1,
	movq	%rax, %rdi	# tmp85,
	call	_ZN9__gnu_cxx17__normal_iteratorIPKN5cgicc10HTTPCookieESt6vectorIS2_SaIS2_EEEC1ERKS4_	#
# /usr/include/c++/11/bits/stl_vector.h:821:       { return const_iterator(this->_M_impl._M_start); }
	movq	-16(%rbp), %rax	# D.65855, D.70049
# /usr/include/c++/11/bits/stl_vector.h:821:       { return const_iterator(this->_M_impl._M_start); }
	movq	-8(%rbp), %rdx	# D.70288, tmp88
	subq	%fs:40, %rdx	# MEM[(<address-space-1> long unsigned int *)40B], tmp88
# SUCC: 4 3 (FALLTHRU)
	je	.L227	#,
# BLOCK 3 seq:1
# PRED: 2 (FALLTHRU)
# SUCC:
	call	__stack_chk_fail@PLT	#
# BLOCK 4 seq:2
# PRED: 2
.L227:
	leave	
	.cfi_def_cfa 7, 8
# SUCC: EXIT [always] 
	ret	
	.cfi_endproc
.LFE2882:
	.size	_ZNKSt6vectorIN5cgicc10HTTPCookieESaIS1_EE5beginEv, .-_ZNKSt6vectorIN5cgicc10HTTPCookieESaIS1_EE5beginEv
	.section	.text._ZNKSt6vectorIN5cgicc10HTTPCookieESaIS1_EE3endEv,"axG",@progbits,_ZNKSt6vectorIN5cgicc10HTTPCookieESaIS1_EE3endEv,comdat
	.align 2
	.weak	_ZNKSt6vectorIN5cgicc10HTTPCookieESaIS1_EE3endEv
	.type	_ZNKSt6vectorIN5cgicc10HTTPCookieESaIS1_EE3endEv, @function
_ZNKSt6vectorIN5cgicc10HTTPCookieESaIS1_EE3endEv:
.LFB2883:
	.cfi_startproc
	endbr64	
# BLOCK 2 seq:0
# PRED: ENTRY (FALLTHRU)
	pushq	%rbp	#
	.cfi_def_cfa_offset 16
	.cfi_offset 6, -16
	movq	%rsp, %rbp	#,
	.cfi_def_cfa_register 6
	subq	$32, %rsp	#,
	movq	%rdi, -24(%rbp)	# this, this
# /usr/include/c++/11/bits/stl_vector.h:838:       end() const _GLIBCXX_NOEXCEPT
	movq	%fs:40, %rax	# MEM[(<address-space-1> long unsigned int *)40B], tmp88
	movq	%rax, -8(%rbp)	# tmp88, D.70289
	xorl	%eax, %eax	# tmp88
# /usr/include/c++/11/bits/stl_vector.h:839:       { return const_iterator(this->_M_impl._M_finish); }
	movq	-24(%rbp), %rax	# this, tmp85
	leaq	8(%rax), %rdx	#, _1
# /usr/include/c++/11/bits/stl_vector.h:839:       { return const_iterator(this->_M_impl._M_finish); }
	leaq	-16(%rbp), %rax	#, tmp86
	movq	%rdx, %rsi	# _1,
	movq	%rax, %rdi	# tmp86,
	call	_ZN9__gnu_cxx17__normal_iteratorIPKN5cgicc10HTTPCookieESt6vectorIS2_SaIS2_EEEC1ERKS4_	#
# /usr/include/c++/11/bits/stl_vector.h:839:       { return const_iterator(this->_M_impl._M_finish); }
	movq	-16(%rbp), %rax	# D.65857, D.70052
# /usr/include/c++/11/bits/stl_vector.h:839:       { return const_iterator(this->_M_impl._M_finish); }
	movq	-8(%rbp), %rdx	# D.70289, tmp89
	subq	%fs:40, %rdx	# MEM[(<address-space-1> long unsigned int *)40B], tmp89
# SUCC: 4 3 (FALLTHRU)
	je	.L230	#,
# BLOCK 3 seq:1
# PRED: 2 (FALLTHRU)
# SUCC:
	call	__stack_chk_fail@PLT	#
# BLOCK 4 seq:2
# PRED: 2
.L230:
	leave	
	.cfi_def_cfa 7, 8
# SUCC: EXIT [always] 
	ret	
	.cfi_endproc
.LFE2883:
	.size	_ZNKSt6vectorIN5cgicc10HTTPCookieESaIS1_EE3endEv, .-_ZNKSt6vectorIN5cgicc10HTTPCookieESaIS1_EE3endEv
	.section	.text._ZN9__gnu_cxxneIPKN5cgicc10HTTPCookieESt6vectorIS2_SaIS2_EEEEbRKNS_17__normal_iteratorIT_T0_EESD_,"axG",@progbits,_ZN9__gnu_cxxneIPKN5cgicc10HTTPCookieESt6vectorIS2_SaIS2_EEEEbRKNS_17__normal_iteratorIT_T0_EESD_,comdat
	.weak	_ZN9__gnu_cxxneIPKN5cgicc10HTTPCookieESt6vectorIS2_SaIS2_EEEEbRKNS_17__normal_iteratorIT_T0_EESD_
	.type	_ZN9__gnu_cxxneIPKN5cgicc10HTTPCookieESt6vectorIS2_SaIS2_EEEEbRKNS_17__normal_iteratorIT_T0_EESD_, @function
_ZN9__gnu_cxxneIPKN5cgicc10HTTPCookieESt6vectorIS2_SaIS2_EEEEbRKNS_17__normal_iteratorIT_T0_EESD_:
.LFB2884:
	.cfi_startproc
	endbr64	
# BLOCK 2 seq:0
# PRED: ENTRY (FALLTHRU)
	pushq	%rbp	#
	.cfi_def_cfa_offset 16
	.cfi_offset 6, -16
	movq	%rsp, %rbp	#,
	.cfi_def_cfa_register 6
	pushq	%rbx	#
	subq	$24, %rsp	#,
	.cfi_offset 3, -24
	movq	%rdi, -24(%rbp)	# __lhs, __lhs
	movq	%rsi, -32(%rbp)	# __rhs, __rhs
# /usr/include/c++/11/bits/stl_iterator.h:1182:     { return __lhs.base() != __rhs.base(); }
	movq	-24(%rbp), %rax	# __lhs, tmp88
	movq	%rax, %rdi	# tmp88,
	call	_ZNK9__gnu_cxx17__normal_iteratorIPKN5cgicc10HTTPCookieESt6vectorIS2_SaIS2_EEE4baseEv	#
# /usr/include/c++/11/bits/stl_iterator.h:1182:     { return __lhs.base() != __rhs.base(); }
	movq	(%rax), %rbx	# *_1, _2
# /usr/include/c++/11/bits/stl_iterator.h:1182:     { return __lhs.base() != __rhs.base(); }
	movq	-32(%rbp), %rax	# __rhs, tmp89
	movq	%rax, %rdi	# tmp89,
	call	_ZNK9__gnu_cxx17__normal_iteratorIPKN5cgicc10HTTPCookieESt6vectorIS2_SaIS2_EEE4baseEv	#
# /usr/include/c++/11/bits/stl_iterator.h:1182:     { return __lhs.base() != __rhs.base(); }
	movq	(%rax), %rax	# *_3, _4
# /usr/include/c++/11/bits/stl_iterator.h:1182:     { return __lhs.base() != __rhs.base(); }
	cmpq	%rax, %rbx	# _4, _2
	setne	%al	#, _10
# /usr/include/c++/11/bits/stl_iterator.h:1182:     { return __lhs.base() != __rhs.base(); }
	movq	-8(%rbp), %rbx	#,
	leave	
	.cfi_def_cfa 7, 8
# SUCC: EXIT [always] 
	ret	
	.cfi_endproc
.LFE2884:
	.size	_ZN9__gnu_cxxneIPKN5cgicc10HTTPCookieESt6vectorIS2_SaIS2_EEEEbRKNS_17__normal_iteratorIT_T0_EESD_, .-_ZN9__gnu_cxxneIPKN5cgicc10HTTPCookieESt6vectorIS2_SaIS2_EEEEbRKNS_17__normal_iteratorIT_T0_EESD_
	.section	.text._ZN9__gnu_cxx17__normal_iteratorIPKN5cgicc10HTTPCookieESt6vectorIS2_SaIS2_EEEppEv,"axG",@progbits,_ZN9__gnu_cxx17__normal_iteratorIPKN5cgicc10HTTPCookieESt6vectorIS2_SaIS2_EEEppEv,comdat
	.align 2
	.weak	_ZN9__gnu_cxx17__normal_iteratorIPKN5cgicc10HTTPCookieESt6vectorIS2_SaIS2_EEEppEv
	.type	_ZN9__gnu_cxx17__normal_iteratorIPKN5cgicc10HTTPCookieESt6vectorIS2_SaIS2_EEEppEv, @function
_ZN9__gnu_cxx17__normal_iteratorIPKN5cgicc10HTTPCookieESt6vectorIS2_SaIS2_EEEppEv:
.LFB2885:
	.cfi_startproc
	endbr64	
# BLOCK 2 seq:0
# PRED: ENTRY (FALLTHRU)
	pushq	%rbp	#
	.cfi_def_cfa_offset 16
	.cfi_offset 6, -16
	movq	%rsp, %rbp	#,
	.cfi_def_cfa_register 6
	movq	%rdi, -8(%rbp)	# this, this
# /usr/include/c++/11/bits/stl_iterator.h:1054: 	++_M_current;
	movq	-8(%rbp), %rax	# this, tmp86
	movq	(%rax), %rax	# this_4(D)->_M_current, _1
# /usr/include/c++/11/bits/stl_iterator.h:1054: 	++_M_current;
	leaq	184(%rax), %rdx	#, _2
	movq	-8(%rbp), %rax	# this, tmp87
	movq	%rdx, (%rax)	# _2, this_4(D)->_M_current
# /usr/include/c++/11/bits/stl_iterator.h:1055: 	return *this;
	movq	-8(%rbp), %rax	# this, _6
# /usr/include/c++/11/bits/stl_iterator.h:1056:       }
	popq	%rbp	#
	.cfi_def_cfa 7, 8
# SUCC: EXIT [always] 
	ret	
	.cfi_endproc
.LFE2885:
	.size	_ZN9__gnu_cxx17__normal_iteratorIPKN5cgicc10HTTPCookieESt6vectorIS2_SaIS2_EEEppEv, .-_ZN9__gnu_cxx17__normal_iteratorIPKN5cgicc10HTTPCookieESt6vectorIS2_SaIS2_EEEppEv
	.section	.text._ZNK9__gnu_cxx17__normal_iteratorIPKN5cgicc10HTTPCookieESt6vectorIS2_SaIS2_EEEdeEv,"axG",@progbits,_ZNK9__gnu_cxx17__normal_iteratorIPKN5cgicc10HTTPCookieESt6vectorIS2_SaIS2_EEEdeEv,comdat
	.align 2
	.weak	_ZNK9__gnu_cxx17__normal_iteratorIPKN5cgicc10HTTPCookieESt6vectorIS2_SaIS2_EEEdeEv
	.type	_ZNK9__gnu_cxx17__normal_iteratorIPKN5cgicc10HTTPCookieESt6vectorIS2_SaIS2_EEEdeEv, @function
_ZNK9__gnu_cxx17__normal_iteratorIPKN5cgicc10HTTPCookieESt6vectorIS2_SaIS2_EEEdeEv:
.LFB2886:
	.cfi_startproc
	endbr64	
# BLOCK 2 seq:0
# PRED: ENTRY (FALLTHRU)
	pushq	%rbp	#
	.cfi_def_cfa_offset 16
	.cfi_offset 6, -16
	movq	%rsp, %rbp	#,
	.cfi_def_cfa_register 6
	movq	%rdi, -8(%rbp)	# this, this
# /usr/include/c++/11/bits/stl_iterator.h:1043:       { return *_M_current; }
	movq	-8(%rbp), %rax	# this, tmp84
	movq	(%rax), %rax	# this_2(D)->_M_current, _3
# /usr/include/c++/11/bits/stl_iterator.h:1043:       { return *_M_current; }
	popq	%rbp	#
	.cfi_def_cfa 7, 8
# SUCC: EXIT [always] 
	ret	
	.cfi_endproc
.LFE2886:
	.size	_ZNK9__gnu_cxx17__normal_iteratorIPKN5cgicc10HTTPCookieESt6vectorIS2_SaIS2_EEEdeEv, .-_ZNK9__gnu_cxx17__normal_iteratorIPKN5cgicc10HTTPCookieESt6vectorIS2_SaIS2_EEEdeEv
	.section	.text._ZStneIcSt11char_traitsIcESaIcEEbRKNSt7__cxx1112basic_stringIT_T0_T1_EEPKS5_,"axG",@progbits,_ZStneIcSt11char_traitsIcESaIcEEbRKNSt7__cxx1112basic_stringIT_T0_T1_EEPKS5_,comdat
	.weak	_ZStneIcSt11char_traitsIcESaIcEEbRKNSt7__cxx1112basic_stringIT_T0_T1_EEPKS5_
	.type	_ZStneIcSt11char_traitsIcESaIcEEbRKNSt7__cxx1112basic_stringIT_T0_T1_EEPKS5_, @function
_ZStneIcSt11char_traitsIcESaIcEEbRKNSt7__cxx1112basic_stringIT_T0_T1_EEPKS5_:
.LFB2887:
	.cfi_startproc
	endbr64	
# BLOCK 2 seq:0
# PRED: ENTRY (FALLTHRU)
	pushq	%rbp	#
	.cfi_def_cfa_offset 16
	.cfi_offset 6, -16
	movq	%rsp, %rbp	#,
	.cfi_def_cfa_register 6
	subq	$16, %rsp	#,
	movq	%rdi, -8(%rbp)	# __lhs, __lhs
	movq	%rsi, -16(%rbp)	# __rhs, __rhs
# /usr/include/c++/11/bits/basic_string.h:6329:     { return !(__lhs == __rhs); }
	movq	-16(%rbp), %rdx	# __rhs, tmp85
	movq	-8(%rbp), %rax	# __lhs, tmp86
	movq	%rdx, %rsi	# tmp85,
	movq	%rax, %rdi	# tmp86,
	call	_ZSteqIcSt11char_traitsIcESaIcEEbRKNSt7__cxx1112basic_stringIT_T0_T1_EEPKS5_	#
# /usr/include/c++/11/bits/basic_string.h:6329:     { return !(__lhs == __rhs); }
	xorl	$1, %eax	#, _6
# /usr/include/c++/11/bits/basic_string.h:6329:     { return !(__lhs == __rhs); }
	leave	
	.cfi_def_cfa 7, 8
# SUCC: EXIT [always] 
	ret	
	.cfi_endproc
.LFE2887:
	.size	_ZStneIcSt11char_traitsIcESaIcEEbRKNSt7__cxx1112basic_stringIT_T0_T1_EEPKS5_, .-_ZStneIcSt11char_traitsIcESaIcEEbRKNSt7__cxx1112basic_stringIT_T0_T1_EEPKS5_
	.section	.text._ZN9__gnu_cxx17__normal_iteratorIPKN5cgicc9FormEntryESt6vectorIS2_SaIS2_EEEC2IPS2_EERKNS0_IT_NS_11__enable_ifIXsrSt10__are_sameISB_SA_E7__valueES7_E6__typeEEE,"axG",@progbits,_ZN9__gnu_cxx17__normal_iteratorIPKN5cgicc9FormEntryESt6vectorIS2_SaIS2_EEEC5IPS2_EERKNS0_IT_NS_11__enable_ifIXsrSt10__are_sameISB_SA_E7__valueES7_E6__typeEEE,comdat
	.align 2
	.weak	_ZN9__gnu_cxx17__normal_iteratorIPKN5cgicc9FormEntryESt6vectorIS2_SaIS2_EEEC2IPS2_EERKNS0_IT_NS_11__enable_ifIXsrSt10__are_sameISB_SA_E7__valueES7_E6__typeEEE
	.type	_ZN9__gnu_cxx17__normal_iteratorIPKN5cgicc9FormEntryESt6vectorIS2_SaIS2_EEEC2IPS2_EERKNS0_IT_NS_11__enable_ifIXsrSt10__are_sameISB_SA_E7__valueES7_E6__typeEEE, @function
_ZN9__gnu_cxx17__normal_iteratorIPKN5cgicc9FormEntryESt6vectorIS2_SaIS2_EEEC2IPS2_EERKNS0_IT_NS_11__enable_ifIXsrSt10__are_sameISB_SA_E7__valueES7_E6__typeEEE:
.LFB2889:
	.cfi_startproc
	endbr64	
# BLOCK 2 seq:0
# PRED: ENTRY (FALLTHRU)
	pushq	%rbp	#
	.cfi_def_cfa_offset 16
	.cfi_offset 6, -16
	movq	%rsp, %rbp	#,
	.cfi_def_cfa_register 6
	subq	$16, %rsp	#,
	movq	%rdi, -8(%rbp)	# this, this
	movq	%rsi, -16(%rbp)	# __i, __i
# /usr/include/c++/11/bits/stl_iterator.h:1037:         : _M_current(__i.base()) { }
	movq	-16(%rbp), %rax	# __i, tmp84
	movq	%rax, %rdi	# tmp84,
	call	_ZNK9__gnu_cxx17__normal_iteratorIPN5cgicc9FormEntryESt6vectorIS2_SaIS2_EEE4baseEv	#
# /usr/include/c++/11/bits/stl_iterator.h:1037:         : _M_current(__i.base()) { }
	movq	(%rax), %rdx	# *_1, _2
	movq	-8(%rbp), %rax	# this, tmp85
	movq	%rdx, (%rax)	# _2, this_4(D)->_M_current
# /usr/include/c++/11/bits/stl_iterator.h:1037:         : _M_current(__i.base()) { }
	nop	
	leave	
	.cfi_def_cfa 7, 8
# SUCC: EXIT [always] 
	ret	
	.cfi_endproc
.LFE2889:
	.size	_ZN9__gnu_cxx17__normal_iteratorIPKN5cgicc9FormEntryESt6vectorIS2_SaIS2_EEEC2IPS2_EERKNS0_IT_NS_11__enable_ifIXsrSt10__are_sameISB_SA_E7__valueES7_E6__typeEEE, .-_ZN9__gnu_cxx17__normal_iteratorIPKN5cgicc9FormEntryESt6vectorIS2_SaIS2_EEEC2IPS2_EERKNS0_IT_NS_11__enable_ifIXsrSt10__are_sameISB_SA_E7__valueES7_E6__typeEEE
	.weak	_ZN9__gnu_cxx17__normal_iteratorIPKN5cgicc9FormEntryESt6vectorIS2_SaIS2_EEEC1IPS2_EERKNS0_IT_NS_11__enable_ifIXsrSt10__are_sameISB_SA_E7__valueES7_E6__typeEEE
	.set	_ZN9__gnu_cxx17__normal_iteratorIPKN5cgicc9FormEntryESt6vectorIS2_SaIS2_EEEC1IPS2_EERKNS0_IT_NS_11__enable_ifIXsrSt10__are_sameISB_SA_E7__valueES7_E6__typeEEE,_ZN9__gnu_cxx17__normal_iteratorIPKN5cgicc9FormEntryESt6vectorIS2_SaIS2_EEEC2IPS2_EERKNS0_IT_NS_11__enable_ifIXsrSt10__are_sameISB_SA_E7__valueES7_E6__typeEEE
	.section	.text._ZNKSt6vectorIN5cgicc9FormEntryESaIS1_EE3endEv,"axG",@progbits,_ZNKSt6vectorIN5cgicc9FormEntryESaIS1_EE3endEv,comdat
	.align 2
	.weak	_ZNKSt6vectorIN5cgicc9FormEntryESaIS1_EE3endEv
	.type	_ZNKSt6vectorIN5cgicc9FormEntryESaIS1_EE3endEv, @function
_ZNKSt6vectorIN5cgicc9FormEntryESaIS1_EE3endEv:
.LFB2891:
	.cfi_startproc
	endbr64	
# BLOCK 2 seq:0
# PRED: ENTRY (FALLTHRU)
	pushq	%rbp	#
	.cfi_def_cfa_offset 16
	.cfi_offset 6, -16
	movq	%rsp, %rbp	#,
	.cfi_def_cfa_register 6
	subq	$32, %rsp	#,
	movq	%rdi, -24(%rbp)	# this, this
# /usr/include/c++/11/bits/stl_vector.h:838:       end() const _GLIBCXX_NOEXCEPT
	movq	%fs:40, %rax	# MEM[(<address-space-1> long unsigned int *)40B], tmp88
	movq	%rax, -8(%rbp)	# tmp88, D.70290
	xorl	%eax, %eax	# tmp88
# /usr/include/c++/11/bits/stl_vector.h:839:       { return const_iterator(this->_M_impl._M_finish); }
	movq	-24(%rbp), %rax	# this, tmp85
	leaq	8(%rax), %rdx	#, _1
# /usr/include/c++/11/bits/stl_vector.h:839:       { return const_iterator(this->_M_impl._M_finish); }
	leaq	-16(%rbp), %rax	#, tmp86
	movq	%rdx, %rsi	# _1,
	movq	%rax, %rdi	# tmp86,
	call	_ZN9__gnu_cxx17__normal_iteratorIPKN5cgicc9FormEntryESt6vectorIS2_SaIS2_EEEC1ERKS4_	#
# /usr/include/c++/11/bits/stl_vector.h:839:       { return const_iterator(this->_M_impl._M_finish); }
	movq	-16(%rbp), %rax	# D.65871, D.70067
# /usr/include/c++/11/bits/stl_vector.h:839:       { return const_iterator(this->_M_impl._M_finish); }
	movq	-8(%rbp), %rdx	# D.70290, tmp89
	subq	%fs:40, %rdx	# MEM[(<address-space-1> long unsigned int *)40B], tmp89
# SUCC: 4 3 (FALLTHRU)
	je	.L242	#,
# BLOCK 3 seq:1
# PRED: 2 (FALLTHRU)
# SUCC:
	call	__stack_chk_fail@PLT	#
# BLOCK 4 seq:2
# PRED: 2
.L242:
	leave	
	.cfi_def_cfa 7, 8
# SUCC: EXIT [always] 
	ret	
	.cfi_endproc
.LFE2891:
	.size	_ZNKSt6vectorIN5cgicc9FormEntryESaIS1_EE3endEv, .-_ZNKSt6vectorIN5cgicc9FormEntryESaIS1_EE3endEv
	.section	.text._ZN9__gnu_cxxneIPKN5cgicc9FormEntryESt6vectorIS2_SaIS2_EEEEbRKNS_17__normal_iteratorIT_T0_EESD_,"axG",@progbits,_ZN9__gnu_cxxneIPKN5cgicc9FormEntryESt6vectorIS2_SaIS2_EEEEbRKNS_17__normal_iteratorIT_T0_EESD_,comdat
	.weak	_ZN9__gnu_cxxneIPKN5cgicc9FormEntryESt6vectorIS2_SaIS2_EEEEbRKNS_17__normal_iteratorIT_T0_EESD_
	.type	_ZN9__gnu_cxxneIPKN5cgicc9FormEntryESt6vectorIS2_SaIS2_EEEEbRKNS_17__normal_iteratorIT_T0_EESD_, @function
_ZN9__gnu_cxxneIPKN5cgicc9FormEntryESt6vectorIS2_SaIS2_EEEEbRKNS_17__normal_iteratorIT_T0_EESD_:
.LFB2892:
	.cfi_startproc
	endbr64	
# BLOCK 2 seq:0
# PRED: ENTRY (FALLTHRU)
	pushq	%rbp	#
	.cfi_def_cfa_offset 16
	.cfi_offset 6, -16
	movq	%rsp, %rbp	#,
	.cfi_def_cfa_register 6
	pushq	%rbx	#
	subq	$24, %rsp	#,
	.cfi_offset 3, -24
	movq	%rdi, -24(%rbp)	# __lhs, __lhs
	movq	%rsi, -32(%rbp)	# __rhs, __rhs
# /usr/include/c++/11/bits/stl_iterator.h:1182:     { return __lhs.base() != __rhs.base(); }
	movq	-24(%rbp), %rax	# __lhs, tmp88
	movq	%rax, %rdi	# tmp88,
	call	_ZNK9__gnu_cxx17__normal_iteratorIPKN5cgicc9FormEntryESt6vectorIS2_SaIS2_EEE4baseEv	#
# /usr/include/c++/11/bits/stl_iterator.h:1182:     { return __lhs.base() != __rhs.base(); }
	movq	(%rax), %rbx	# *_1, _2
# /usr/include/c++/11/bits/stl_iterator.h:1182:     { return __lhs.base() != __rhs.base(); }
	movq	-32(%rbp), %rax	# __rhs, tmp89
	movq	%rax, %rdi	# tmp89,
	call	_ZNK9__gnu_cxx17__normal_iteratorIPKN5cgicc9FormEntryESt6vectorIS2_SaIS2_EEE4baseEv	#
# /usr/include/c++/11/bits/stl_iterator.h:1182:     { return __lhs.base() != __rhs.base(); }
	movq	(%rax), %rax	# *_3, _4
# /usr/include/c++/11/bits/stl_iterator.h:1182:     { return __lhs.base() != __rhs.base(); }
	cmpq	%rax, %rbx	# _4, _2
	setne	%al	#, _10
# /usr/include/c++/11/bits/stl_iterator.h:1182:     { return __lhs.base() != __rhs.base(); }
	movq	-8(%rbp), %rbx	#,
	leave	
	.cfi_def_cfa 7, 8
# SUCC: EXIT [always] 
	ret	
	.cfi_endproc
.LFE2892:
	.size	_ZN9__gnu_cxxneIPKN5cgicc9FormEntryESt6vectorIS2_SaIS2_EEEEbRKNS_17__normal_iteratorIT_T0_EESD_, .-_ZN9__gnu_cxxneIPKN5cgicc9FormEntryESt6vectorIS2_SaIS2_EEEEbRKNS_17__normal_iteratorIT_T0_EESD_
	.section	.text._ZNK9__gnu_cxx17__normal_iteratorIPKN5cgicc9FormEntryESt6vectorIS2_SaIS2_EEEptEv,"axG",@progbits,_ZNK9__gnu_cxx17__normal_iteratorIPKN5cgicc9FormEntryESt6vectorIS2_SaIS2_EEEptEv,comdat
	.align 2
	.weak	_ZNK9__gnu_cxx17__normal_iteratorIPKN5cgicc9FormEntryESt6vectorIS2_SaIS2_EEEptEv
	.type	_ZNK9__gnu_cxx17__normal_iteratorIPKN5cgicc9FormEntryESt6vectorIS2_SaIS2_EEEptEv, @function
_ZNK9__gnu_cxx17__normal_iteratorIPKN5cgicc9FormEntryESt6vectorIS2_SaIS2_EEEptEv:
.LFB2893:
	.cfi_startproc
	endbr64	
# BLOCK 2 seq:0
# PRED: ENTRY (FALLTHRU)
	pushq	%rbp	#
	.cfi_def_cfa_offset 16
	.cfi_offset 6, -16
	movq	%rsp, %rbp	#,
	.cfi_def_cfa_register 6
	movq	%rdi, -8(%rbp)	# this, this
# /usr/include/c++/11/bits/stl_iterator.h:1048:       { return _M_current; }
	movq	-8(%rbp), %rax	# this, tmp84
	movq	(%rax), %rax	# this_2(D)->_M_current, _3
# /usr/include/c++/11/bits/stl_iterator.h:1048:       { return _M_current; }
	popq	%rbp	#
	.cfi_def_cfa 7, 8
# SUCC: EXIT [always] 
	ret	
	.cfi_endproc
.LFE2893:
	.size	_ZNK9__gnu_cxx17__normal_iteratorIPKN5cgicc9FormEntryESt6vectorIS2_SaIS2_EEEptEv, .-_ZNK9__gnu_cxx17__normal_iteratorIPKN5cgicc9FormEntryESt6vectorIS2_SaIS2_EEEptEv
	.section	.text._ZSt8distanceIPKcENSt15iterator_traitsIT_E15difference_typeES3_S3_,"axG",@progbits,_ZSt8distanceIPKcENSt15iterator_traitsIT_E15difference_typeES3_S3_,comdat
	.weak	_ZSt8distanceIPKcENSt15iterator_traitsIT_E15difference_typeES3_S3_
	.type	_ZSt8distanceIPKcENSt15iterator_traitsIT_E15difference_typeES3_S3_, @function
_ZSt8distanceIPKcENSt15iterator_traitsIT_E15difference_typeES3_S3_:
.LFB3018:
	.cfi_startproc
	endbr64	
# BLOCK 2 seq:0
# PRED: ENTRY (FALLTHRU)
	pushq	%rbp	#
	.cfi_def_cfa_offset 16
	.cfi_offset 6, -16
	movq	%rsp, %rbp	#,
	.cfi_def_cfa_register 6
	subq	$16, %rsp	#,
	movq	%rdi, -8(%rbp)	# __first, __first
	movq	%rsi, -16(%rbp)	# __last, __last
# /usr/include/c++/11/bits/stl_iterator_base_funcs.h:142: 			     std::__iterator_category(__first));
	leaq	-8(%rbp), %rax	#, tmp86
	movq	%rax, %rdi	# tmp86,
	call	_ZSt19__iterator_categoryIPKcENSt15iterator_traitsIT_E17iterator_categoryERKS3_	#
# /usr/include/c++/11/bits/stl_iterator_base_funcs.h:141:       return std::__distance(__first, __last,
	movq	-8(%rbp), %rax	# __first, __first.11_1
	movq	-16(%rbp), %rdx	# __last, tmp87
	movq	%rdx, %rsi	# tmp87,
	movq	%rax, %rdi	# __first.11_1,
	call	_ZSt10__distanceIPKcENSt15iterator_traitsIT_E15difference_typeES3_S3_St26random_access_iterator_tag	#
# /usr/include/c++/11/bits/stl_iterator_base_funcs.h:143:     }
	leave	
	.cfi_def_cfa 7, 8
# SUCC: EXIT [always] 
	ret	
	.cfi_endproc
.LFE3018:
	.size	_ZSt8distanceIPKcENSt15iterator_traitsIT_E15difference_typeES3_S3_, .-_ZSt8distanceIPKcENSt15iterator_traitsIT_E15difference_typeES3_S3_
	.section	.rodata
	.align 8
.LC44:
	.string	"basic_string::_M_construct null not valid"
	.section	.text._ZNSt7__cxx1112basic_stringIcSt11char_traitsIcESaIcEE12_M_constructIPKcEEvT_S8_St20forward_iterator_tag,"axG",@progbits,_ZNSt7__cxx1112basic_stringIcSt11char_traitsIcESaIcEE12_M_constructIPKcEEvT_S8_St20forward_iterator_tag,comdat
	.align 2
	.weak	_ZNSt7__cxx1112basic_stringIcSt11char_traitsIcESaIcEE12_M_constructIPKcEEvT_S8_St20forward_iterator_tag
	.type	_ZNSt7__cxx1112basic_stringIcSt11char_traitsIcESaIcEE12_M_constructIPKcEEvT_S8_St20forward_iterator_tag, @function
_ZNSt7__cxx1112basic_stringIcSt11char_traitsIcESaIcEE12_M_constructIPKcEEvT_S8_St20forward_iterator_tag:
.LFB3017:
	.cfi_startproc
	.cfi_personality 0x9b,DW.ref.__gxx_personality_v0
	.cfi_lsda 0x1b,.LLSDA3017
	endbr64	
# BLOCK 2 seq:0
# PRED: ENTRY (FALLTHRU)
	pushq	%rbp	#
	.cfi_def_cfa_offset 16
	.cfi_offset 6, -16
	movq	%rsp, %rbp	#,
	.cfi_def_cfa_register 6
	pushq	%rbx	#
	subq	$56, %rsp	#,
	.cfi_offset 3, -24
	movq	%rdi, -40(%rbp)	# this, this
	movq	%rsi, -48(%rbp)	# __beg, __beg
	movq	%rdx, -56(%rbp)	# __end, __end
# /usr/include/c++/11/bits/basic_string.tcc:206:       basic_string<_CharT, _Traits, _Alloc>::
	movq	%fs:40, %rax	# MEM[(<address-space-1> long unsigned int *)40B], tmp109
	movq	%rax, -24(%rbp)	# tmp109, D.70292
	xorl	%eax, %eax	# tmp109
# /usr/include/c++/11/bits/basic_string.tcc:211: 	if (__gnu_cxx::__is_null_pointer(__beg) && __beg != __end)
	movq	-48(%rbp), %rax	# __beg, tmp93
	movq	%rax, %rdi	# tmp93,
	call	_ZN9__gnu_cxx17__is_null_pointerIKcEEbPT_	#
# /usr/include/c++/11/bits/basic_string.tcc:211: 	if (__gnu_cxx::__is_null_pointer(__beg) && __beg != __end)
	testb	%al, %al	# _1
# SUCC: 3 (FALLTHRU) 5
	je	.L250	#,
# BLOCK 3 seq:1
# PRED: 2 (FALLTHRU)
# /usr/include/c++/11/bits/basic_string.tcc:211: 	if (__gnu_cxx::__is_null_pointer(__beg) && __beg != __end)
	movq	-48(%rbp), %rax	# __beg, tmp94
	cmpq	-56(%rbp), %rax	# __end, tmp94
# SUCC: 4 (FALLTHRU) 5
	je	.L250	#,
# BLOCK 4 seq:2
# PRED: 3 (FALLTHRU)
# /usr/include/c++/11/bits/basic_string.tcc:211: 	if (__gnu_cxx::__is_null_pointer(__beg) && __beg != __end)
	movl	$1, %eax	#, iftmp.7_10
# SUCC: 6 [always] 
	jmp	.L251	#
# BLOCK 5 seq:3
# PRED: 2 3
.L250:
# SUCC: 6 (FALLTHRU)
# /usr/include/c++/11/bits/basic_string.tcc:211: 	if (__gnu_cxx::__is_null_pointer(__beg) && __beg != __end)
	movl	$0, %eax	#, iftmp.7_10
# BLOCK 6 seq:4
# PRED: 5 (FALLTHRU) 4 [always] 
.L251:
# /usr/include/c++/11/bits/basic_string.tcc:211: 	if (__gnu_cxx::__is_null_pointer(__beg) && __beg != __end)
	testb	%al, %al	# iftmp.7_10
# SUCC: 7 (FALLTHRU) 8
	je	.L252	#,
# BLOCK 7 seq:5
# PRED: 6 (FALLTHRU)
# /usr/include/c++/11/bits/basic_string.tcc:212: 	  std::__throw_logic_error(__N("basic_string::"
	leaq	.LC44(%rip), %rax	#, tmp95
	movq	%rax, %rdi	# tmp95,
.LEHB96:
# SUCC:
	call	_ZSt19__throw_logic_errorPKc@PLT	#
# BLOCK 8 seq:6
# PRED: 6
.L252:
# /usr/include/c++/11/bits/basic_string.tcc:215: 	size_type __dnew = static_cast<size_type>(std::distance(__beg, __end));
	movq	-56(%rbp), %rdx	# __end, tmp96
	movq	-48(%rbp), %rax	# __beg, tmp97
	movq	%rdx, %rsi	# tmp96,
	movq	%rax, %rdi	# tmp97,
	call	_ZSt8distanceIPKcENSt15iterator_traitsIT_E15difference_typeES3_S3_	#
# /usr/include/c++/11/bits/basic_string.tcc:215: 	size_type __dnew = static_cast<size_type>(std::distance(__beg, __end));
	movq	%rax, -32(%rbp)	# _3, __dnew
# /usr/include/c++/11/bits/basic_string.tcc:217: 	if (__dnew > size_type(_S_local_capacity))
	movq	-32(%rbp), %rax	# __dnew, __dnew.8_4
# /usr/include/c++/11/bits/basic_string.tcc:217: 	if (__dnew > size_type(_S_local_capacity))
	cmpq	$15, %rax	#, __dnew.8_4
# SUCC: 9 (FALLTHRU) 10
	jbe	.L253	#,
# BLOCK 9 seq:7
# PRED: 8 (FALLTHRU)
# /usr/include/c++/11/bits/basic_string.tcc:219: 	    _M_data(_M_create(__dnew, size_type(0)));
	leaq	-32(%rbp), %rcx	#, tmp98
	movq	-40(%rbp), %rax	# this, tmp99
	movl	$0, %edx	#,
	movq	%rcx, %rsi	# tmp98,
	movq	%rax, %rdi	# tmp99,
	call	_ZNSt7__cxx1112basic_stringIcSt11char_traitsIcESaIcEE9_M_createERmm@PLT	#
	movq	%rax, %rdx	#, _5
	movq	-40(%rbp), %rax	# this, tmp100
	movq	%rdx, %rsi	# _5,
	movq	%rax, %rdi	# tmp100,
	call	_ZNSt7__cxx1112basic_stringIcSt11char_traitsIcESaIcEE7_M_dataEPc@PLT	#
# /usr/include/c++/11/bits/basic_string.tcc:220: 	    _M_capacity(__dnew);
	movq	-32(%rbp), %rdx	# __dnew, __dnew.9_6
	movq	-40(%rbp), %rax	# this, tmp101
	movq	%rdx, %rsi	# __dnew.9_6,
	movq	%rax, %rdi	# tmp101,
# SUCC: 10 (FALLTHRU)
	call	_ZNSt7__cxx1112basic_stringIcSt11char_traitsIcESaIcEE11_M_capacityEm@PLT	#
.LEHE96:
# BLOCK 10 seq:8
# PRED: 8 9 (FALLTHRU)
.L253:
# /usr/include/c++/11/bits/basic_string.tcc:225: 	  { this->_S_copy_chars(_M_data(), __beg, __end); }
	movq	-40(%rbp), %rax	# this, tmp102
	movq	%rax, %rdi	# tmp102,
.LEHB97:
# SUCC: 13 (ABNORMAL,ABNORMAL_CALL,EH) 11 (FALLTHRU)
	call	_ZNKSt7__cxx1112basic_stringIcSt11char_traitsIcESaIcEE7_M_dataEv@PLT	#
.LEHE97:
# BLOCK 11 seq:9
# PRED: 10 (FALLTHRU)
	movq	%rax, %rcx	#, _7
	movq	-56(%rbp), %rdx	# __end, tmp103
	movq	-48(%rbp), %rax	# __beg, tmp104
	movq	%rax, %rsi	# tmp104,
	movq	%rcx, %rdi	# _7,
	call	_ZNSt7__cxx1112basic_stringIcSt11char_traitsIcESaIcEE13_S_copy_charsEPcPKcS7_@PLT	#
# /usr/include/c++/11/bits/basic_string.tcc:232: 	_M_set_length(__dnew);
	movq	-32(%rbp), %rdx	# __dnew, __dnew.10_9
	movq	-40(%rbp), %rax	# this, tmp105
	movq	%rdx, %rsi	# __dnew.10_9,
	movq	%rax, %rdi	# tmp105,
.LEHB98:
	call	_ZNSt7__cxx1112basic_stringIcSt11char_traitsIcESaIcEE13_M_set_lengthEm@PLT	#
.LEHE98:
# /usr/include/c++/11/bits/basic_string.tcc:233:       }
	nop	
	movq	-24(%rbp), %rax	# D.70292, tmp110
	subq	%fs:40, %rax	# MEM[(<address-space-1> long unsigned int *)40B], tmp110
# SUCC: 17 12 (FALLTHRU)
	je	.L256	#,
# BLOCK 12 seq:10
# PRED: 11 (FALLTHRU)
# SUCC: 16 [always] 
	jmp	.L259	#
# BLOCK 13 seq:11
# PRED: 10 (ABNORMAL,ABNORMAL_CALL,EH)
.L257:
	endbr64	
# /usr/include/c++/11/bits/basic_string.tcc:226: 	__catch(...)
	movq	%rax, %rdi	# _8,
	call	__cxa_begin_catch@PLT	#
# /usr/include/c++/11/bits/basic_string.tcc:228: 	    _M_dispose();
	movq	-40(%rbp), %rax	# this, tmp107
	movq	%rax, %rdi	# tmp107,
.LEHB99:
# SUCC: 15 (ABNORMAL,ABNORMAL_CALL,EH) 14 (FALLTHRU)
	call	_ZNSt7__cxx1112basic_stringIcSt11char_traitsIcESaIcEE10_M_disposeEv@PLT	#
# BLOCK 14 seq:12
# PRED: 13 (FALLTHRU)
# SUCC: 15 (ABNORMAL,ABNORMAL_CALL,EH)
# /usr/include/c++/11/bits/basic_string.tcc:229: 	    __throw_exception_again;
	call	__cxa_rethrow@PLT	#
.LEHE99:
# BLOCK 15 seq:13
# PRED: 13 (ABNORMAL,ABNORMAL_CALL,EH) 14 (ABNORMAL,ABNORMAL_CALL,EH)
.L258:
	endbr64	
# /usr/include/c++/11/bits/basic_string.tcc:226: 	__catch(...)
	movq	%rax, %rbx	#, tmp108
	call	__cxa_end_catch@PLT	#
	movq	%rbx, %rax	# tmp108, D.70291
	movq	%rax, %rdi	# D.70291,
.LEHB100:
# SUCC:
	call	_Unwind_Resume@PLT	#
.LEHE100:
# BLOCK 16 seq:14
# PRED: 12 [always] 
.L259:
# SUCC:
# /usr/include/c++/11/bits/basic_string.tcc:233:       }
	call	__stack_chk_fail@PLT	#
# BLOCK 17 seq:15
# PRED: 11
.L256:
	movq	-8(%rbp), %rbx	#,
	leave	
	.cfi_def_cfa 7, 8
# SUCC: EXIT [always] 
	ret	
	.cfi_endproc
.LFE3017:
	.section	.gcc_except_table
	.align 4
.LLSDA3017:
	.byte	0xff	# @LPStart format (omit)
	.byte	0x9b	# @TType format (indirect pcrel sdata4)
	.uleb128 .LLSDATT3017-.LLSDATTD3017	# @TType base offset
.LLSDATTD3017:
	.byte	0x1	# call-site format (uleb128)
	.uleb128 .LLSDACSE3017-.LLSDACSB3017	# Call-site table length
.LLSDACSB3017:
	.uleb128 .LEHB96-.LFB3017	# region 0 start
	.uleb128 .LEHE96-.LEHB96	# length
	.uleb128 0	# landing pad
	.uleb128 0	# action
	.uleb128 .LEHB97-.LFB3017	# region 1 start
	.uleb128 .LEHE97-.LEHB97	# length
	.uleb128 .L257-.LFB3017	# landing pad
	.uleb128 0x1	# action
	.uleb128 .LEHB98-.LFB3017	# region 2 start
	.uleb128 .LEHE98-.LEHB98	# length
	.uleb128 0	# landing pad
	.uleb128 0	# action
	.uleb128 .LEHB99-.LFB3017	# region 3 start
	.uleb128 .LEHE99-.LEHB99	# length
	.uleb128 .L258-.LFB3017	# landing pad
	.uleb128 0	# action
	.uleb128 .LEHB100-.LFB3017	# region 4 start
	.uleb128 .LEHE100-.LEHB100	# length
	.uleb128 0	# landing pad
	.uleb128 0	# action
.LLSDACSE3017:
	.byte	0x1	# Action record table
	.byte	0
	.align 4
	.long	0

.LLSDATT3017:
	.section	.text._ZNSt7__cxx1112basic_stringIcSt11char_traitsIcESaIcEE12_M_constructIPKcEEvT_S8_St20forward_iterator_tag,"axG",@progbits,_ZNSt7__cxx1112basic_stringIcSt11char_traitsIcESaIcEE12_M_constructIPKcEEvT_S8_St20forward_iterator_tag,comdat
	.size	_ZNSt7__cxx1112basic_stringIcSt11char_traitsIcESaIcEE12_M_constructIPKcEEvT_S8_St20forward_iterator_tag, .-_ZNSt7__cxx1112basic_stringIcSt11char_traitsIcESaIcEE12_M_constructIPKcEEvT_S8_St20forward_iterator_tag
	.section	.text._ZN9__gnu_cxx17__normal_iteratorIPKN5cgicc10HTTPCookieESt6vectorIS2_SaIS2_EEEC2ERKS4_,"axG",@progbits,_ZN9__gnu_cxx17__normal_iteratorIPKN5cgicc10HTTPCookieESt6vectorIS2_SaIS2_EEEC5ERKS4_,comdat
	.align 2
	.weak	_ZN9__gnu_cxx17__normal_iteratorIPKN5cgicc10HTTPCookieESt6vectorIS2_SaIS2_EEEC2ERKS4_
	.type	_ZN9__gnu_cxx17__normal_iteratorIPKN5cgicc10HTTPCookieESt6vectorIS2_SaIS2_EEEC2ERKS4_, @function
_ZN9__gnu_cxx17__normal_iteratorIPKN5cgicc10HTTPCookieESt6vectorIS2_SaIS2_EEEC2ERKS4_:
.LFB3022:
	.cfi_startproc
	endbr64	
# BLOCK 2 seq:0
# PRED: ENTRY (FALLTHRU)
	pushq	%rbp	#
	.cfi_def_cfa_offset 16
	.cfi_offset 6, -16
	movq	%rsp, %rbp	#,
	.cfi_def_cfa_register 6
	movq	%rdi, -8(%rbp)	# this, this
	movq	%rsi, -16(%rbp)	# __i, __i
# /usr/include/c++/11/bits/stl_iterator.h:1028:       : _M_current(__i) { }
	movq	-16(%rbp), %rax	# __i, tmp83
	movq	(%rax), %rdx	# *__i_5(D), _1
	movq	-8(%rbp), %rax	# this, tmp84
	movq	%rdx, (%rax)	# _1, this_3(D)->_M_current
# /usr/include/c++/11/bits/stl_iterator.h:1028:       : _M_current(__i) { }
	nop	
	popq	%rbp	#
	.cfi_def_cfa 7, 8
# SUCC: EXIT [always] 
	ret	
	.cfi_endproc
.LFE3022:
	.size	_ZN9__gnu_cxx17__normal_iteratorIPKN5cgicc10HTTPCookieESt6vectorIS2_SaIS2_EEEC2ERKS4_, .-_ZN9__gnu_cxx17__normal_iteratorIPKN5cgicc10HTTPCookieESt6vectorIS2_SaIS2_EEEC2ERKS4_
	.weak	_ZN9__gnu_cxx17__normal_iteratorIPKN5cgicc10HTTPCookieESt6vectorIS2_SaIS2_EEEC1ERKS4_
	.set	_ZN9__gnu_cxx17__normal_iteratorIPKN5cgicc10HTTPCookieESt6vectorIS2_SaIS2_EEEC1ERKS4_,_ZN9__gnu_cxx17__normal_iteratorIPKN5cgicc10HTTPCookieESt6vectorIS2_SaIS2_EEEC2ERKS4_
	.section	.text._ZNK9__gnu_cxx17__normal_iteratorIPKN5cgicc10HTTPCookieESt6vectorIS2_SaIS2_EEE4baseEv,"axG",@progbits,_ZNK9__gnu_cxx17__normal_iteratorIPKN5cgicc10HTTPCookieESt6vectorIS2_SaIS2_EEE4baseEv,comdat
	.align 2
	.weak	_ZNK9__gnu_cxx17__normal_iteratorIPKN5cgicc10HTTPCookieESt6vectorIS2_SaIS2_EEE4baseEv
	.type	_ZNK9__gnu_cxx17__normal_iteratorIPKN5cgicc10HTTPCookieESt6vectorIS2_SaIS2_EEE4baseEv, @function
_ZNK9__gnu_cxx17__normal_iteratorIPKN5cgicc10HTTPCookieESt6vectorIS2_SaIS2_EEE4baseEv:
.LFB3024:
	.cfi_startproc
	endbr64	
# BLOCK 2 seq:0
# PRED: ENTRY (FALLTHRU)
	pushq	%rbp	#
	.cfi_def_cfa_offset 16
	.cfi_offset 6, -16
	movq	%rsp, %rbp	#,
	.cfi_def_cfa_register 6
	movq	%rdi, -8(%rbp)	# this, this
# /usr/include/c++/11/bits/stl_iterator.h:1106:       { return _M_current; }
	movq	-8(%rbp), %rax	# this, _2
# /usr/include/c++/11/bits/stl_iterator.h:1106:       { return _M_current; }
	popq	%rbp	#
	.cfi_def_cfa 7, 8
# SUCC: EXIT [always] 
	ret	
	.cfi_endproc
.LFE3024:
	.size	_ZNK9__gnu_cxx17__normal_iteratorIPKN5cgicc10HTTPCookieESt6vectorIS2_SaIS2_EEE4baseEv, .-_ZNK9__gnu_cxx17__normal_iteratorIPKN5cgicc10HTTPCookieESt6vectorIS2_SaIS2_EEE4baseEv
	.section	.text._ZNK9__gnu_cxx17__normal_iteratorIPN5cgicc9FormEntryESt6vectorIS2_SaIS2_EEE4baseEv,"axG",@progbits,_ZNK9__gnu_cxx17__normal_iteratorIPN5cgicc9FormEntryESt6vectorIS2_SaIS2_EEE4baseEv,comdat
	.align 2
	.weak	_ZNK9__gnu_cxx17__normal_iteratorIPN5cgicc9FormEntryESt6vectorIS2_SaIS2_EEE4baseEv
	.type	_ZNK9__gnu_cxx17__normal_iteratorIPN5cgicc9FormEntryESt6vectorIS2_SaIS2_EEE4baseEv, @function
_ZNK9__gnu_cxx17__normal_iteratorIPN5cgicc9FormEntryESt6vectorIS2_SaIS2_EEE4baseEv:
.LFB3025:
	.cfi_startproc
	endbr64	
# BLOCK 2 seq:0
# PRED: ENTRY (FALLTHRU)
	pushq	%rbp	#
	.cfi_def_cfa_offset 16
	.cfi_offset 6, -16
	movq	%rsp, %rbp	#,
	.cfi_def_cfa_register 6
	movq	%rdi, -8(%rbp)	# this, this
# /usr/include/c++/11/bits/stl_iterator.h:1106:       { return _M_current; }
	movq	-8(%rbp), %rax	# this, _2
# /usr/include/c++/11/bits/stl_iterator.h:1106:       { return _M_current; }
	popq	%rbp	#
	.cfi_def_cfa 7, 8
# SUCC: EXIT [always] 
	ret	
	.cfi_endproc
.LFE3025:
	.size	_ZNK9__gnu_cxx17__normal_iteratorIPN5cgicc9FormEntryESt6vectorIS2_SaIS2_EEE4baseEv, .-_ZNK9__gnu_cxx17__normal_iteratorIPN5cgicc9FormEntryESt6vectorIS2_SaIS2_EEE4baseEv
	.section	.text._ZN9__gnu_cxx17__normal_iteratorIPKN5cgicc9FormEntryESt6vectorIS2_SaIS2_EEEC2ERKS4_,"axG",@progbits,_ZN9__gnu_cxx17__normal_iteratorIPKN5cgicc9FormEntryESt6vectorIS2_SaIS2_EEEC5ERKS4_,comdat
	.align 2
	.weak	_ZN9__gnu_cxx17__normal_iteratorIPKN5cgicc9FormEntryESt6vectorIS2_SaIS2_EEEC2ERKS4_
	.type	_ZN9__gnu_cxx17__normal_iteratorIPKN5cgicc9FormEntryESt6vectorIS2_SaIS2_EEEC2ERKS4_, @function
_ZN9__gnu_cxx17__normal_iteratorIPKN5cgicc9FormEntryESt6vectorIS2_SaIS2_EEEC2ERKS4_:
.LFB3027:
	.cfi_startproc
	endbr64	
# BLOCK 2 seq:0
# PRED: ENTRY (FALLTHRU)
	pushq	%rbp	#
	.cfi_def_cfa_offset 16
	.cfi_offset 6, -16
	movq	%rsp, %rbp	#,
	.cfi_def_cfa_register 6
	movq	%rdi, -8(%rbp)	# this, this
	movq	%rsi, -16(%rbp)	# __i, __i
# /usr/include/c++/11/bits/stl_iterator.h:1028:       : _M_current(__i) { }
	movq	-16(%rbp), %rax	# __i, tmp83
	movq	(%rax), %rdx	# *__i_5(D), _1
	movq	-8(%rbp), %rax	# this, tmp84
	movq	%rdx, (%rax)	# _1, this_3(D)->_M_current
# /usr/include/c++/11/bits/stl_iterator.h:1028:       : _M_current(__i) { }
	nop	
	popq	%rbp	#
	.cfi_def_cfa 7, 8
# SUCC: EXIT [always] 
	ret	
	.cfi_endproc
.LFE3027:
	.size	_ZN9__gnu_cxx17__normal_iteratorIPKN5cgicc9FormEntryESt6vectorIS2_SaIS2_EEEC2ERKS4_, .-_ZN9__gnu_cxx17__normal_iteratorIPKN5cgicc9FormEntryESt6vectorIS2_SaIS2_EEEC2ERKS4_
	.weak	_ZN9__gnu_cxx17__normal_iteratorIPKN5cgicc9FormEntryESt6vectorIS2_SaIS2_EEEC1ERKS4_
	.set	_ZN9__gnu_cxx17__normal_iteratorIPKN5cgicc9FormEntryESt6vectorIS2_SaIS2_EEEC1ERKS4_,_ZN9__gnu_cxx17__normal_iteratorIPKN5cgicc9FormEntryESt6vectorIS2_SaIS2_EEEC2ERKS4_
	.section	.text._ZNK9__gnu_cxx17__normal_iteratorIPKN5cgicc9FormEntryESt6vectorIS2_SaIS2_EEE4baseEv,"axG",@progbits,_ZNK9__gnu_cxx17__normal_iteratorIPKN5cgicc9FormEntryESt6vectorIS2_SaIS2_EEE4baseEv,comdat
	.align 2
	.weak	_ZNK9__gnu_cxx17__normal_iteratorIPKN5cgicc9FormEntryESt6vectorIS2_SaIS2_EEE4baseEv
	.type	_ZNK9__gnu_cxx17__normal_iteratorIPKN5cgicc9FormEntryESt6vectorIS2_SaIS2_EEE4baseEv, @function
_ZNK9__gnu_cxx17__normal_iteratorIPKN5cgicc9FormEntryESt6vectorIS2_SaIS2_EEE4baseEv:
.LFB3029:
	.cfi_startproc
	endbr64	
# BLOCK 2 seq:0
# PRED: ENTRY (FALLTHRU)
	pushq	%rbp	#
	.cfi_def_cfa_offset 16
	.cfi_offset 6, -16
	movq	%rsp, %rbp	#,
	.cfi_def_cfa_register 6
	movq	%rdi, -8(%rbp)	# this, this
# /usr/include/c++/11/bits/stl_iterator.h:1106:       { return _M_current; }
	movq	-8(%rbp), %rax	# this, _2
# /usr/include/c++/11/bits/stl_iterator.h:1106:       { return _M_current; }
	popq	%rbp	#
	.cfi_def_cfa 7, 8
# SUCC: EXIT [always] 
	ret	
	.cfi_endproc
.LFE3029:
	.size	_ZNK9__gnu_cxx17__normal_iteratorIPKN5cgicc9FormEntryESt6vectorIS2_SaIS2_EEE4baseEv, .-_ZNK9__gnu_cxx17__normal_iteratorIPKN5cgicc9FormEntryESt6vectorIS2_SaIS2_EEE4baseEv
	.section	.text._ZN9__gnu_cxx17__is_null_pointerIKcEEbPT_,"axG",@progbits,_ZN9__gnu_cxx17__is_null_pointerIKcEEbPT_,comdat
	.weak	_ZN9__gnu_cxx17__is_null_pointerIKcEEbPT_
	.type	_ZN9__gnu_cxx17__is_null_pointerIKcEEbPT_, @function
_ZN9__gnu_cxx17__is_null_pointerIKcEEbPT_:
.LFB3096:
	.cfi_startproc
	endbr64	
# BLOCK 2 seq:0
# PRED: ENTRY (FALLTHRU)
	pushq	%rbp	#
	.cfi_def_cfa_offset 16
	.cfi_offset 6, -16
	movq	%rsp, %rbp	#,
	.cfi_def_cfa_register 6
	movq	%rdi, -8(%rbp)	# __ptr, __ptr
# /usr/include/c++/11/ext/type_traits.h:153:     { return __ptr == 0; }
	cmpq	$0, -8(%rbp)	#, __ptr
	sete	%al	#, _2
# /usr/include/c++/11/ext/type_traits.h:153:     { return __ptr == 0; }
	popq	%rbp	#
	.cfi_def_cfa 7, 8
# SUCC: EXIT [always] 
	ret	
	.cfi_endproc
.LFE3096:
	.size	_ZN9__gnu_cxx17__is_null_pointerIKcEEbPT_, .-_ZN9__gnu_cxx17__is_null_pointerIKcEEbPT_
	.section	.text._ZSt19__iterator_categoryIPKcENSt15iterator_traitsIT_E17iterator_categoryERKS3_,"axG",@progbits,_ZSt19__iterator_categoryIPKcENSt15iterator_traitsIT_E17iterator_categoryERKS3_,comdat
	.weak	_ZSt19__iterator_categoryIPKcENSt15iterator_traitsIT_E17iterator_categoryERKS3_
	.type	_ZSt19__iterator_categoryIPKcENSt15iterator_traitsIT_E17iterator_categoryERKS3_, @function
_ZSt19__iterator_categoryIPKcENSt15iterator_traitsIT_E17iterator_categoryERKS3_:
.LFB3097:
	.cfi_startproc
	endbr64	
# BLOCK 2 seq:0
# PRED: ENTRY (FALLTHRU)
	pushq	%rbp	#
	.cfi_def_cfa_offset 16
	.cfi_offset 6, -16
	movq	%rsp, %rbp	#,
	.cfi_def_cfa_register 6
	movq	%rdi, -8(%rbp)	# D.68135, D.68135
# /usr/include/c++/11/bits/stl_iterator_base_types.h:239:     { return typename iterator_traits<_Iter>::iterator_category(); }
	popq	%rbp	#
	.cfi_def_cfa 7, 8
# SUCC: EXIT [always] 
	ret	
	.cfi_endproc
.LFE3097:
	.size	_ZSt19__iterator_categoryIPKcENSt15iterator_traitsIT_E17iterator_categoryERKS3_, .-_ZSt19__iterator_categoryIPKcENSt15iterator_traitsIT_E17iterator_categoryERKS3_
	.section	.text._ZSt10__distanceIPKcENSt15iterator_traitsIT_E15difference_typeES3_S3_St26random_access_iterator_tag,"axG",@progbits,_ZSt10__distanceIPKcENSt15iterator_traitsIT_E15difference_typeES3_S3_St26random_access_iterator_tag,comdat
	.weak	_ZSt10__distanceIPKcENSt15iterator_traitsIT_E15difference_typeES3_S3_St26random_access_iterator_tag
	.type	_ZSt10__distanceIPKcENSt15iterator_traitsIT_E15difference_typeES3_S3_St26random_access_iterator_tag, @function
_ZSt10__distanceIPKcENSt15iterator_traitsIT_E15difference_typeES3_S3_St26random_access_iterator_tag:
.LFB3098:
	.cfi_startproc
	endbr64	
# BLOCK 2 seq:0
# PRED: ENTRY (FALLTHRU)
	pushq	%rbp	#
	.cfi_def_cfa_offset 16
	.cfi_offset 6, -16
	movq	%rsp, %rbp	#,
	.cfi_def_cfa_register 6
	movq	%rdi, -8(%rbp)	# __first, __first
	movq	%rsi, -16(%rbp)	# __last, __last
# /usr/include/c++/11/bits/stl_iterator_base_funcs.h:104:       return __last - __first;
	movq	-16(%rbp), %rax	# __last, tmp84
	subq	-8(%rbp), %rax	# __first, _3
# /usr/include/c++/11/bits/stl_iterator_base_funcs.h:105:     }
	popq	%rbp	#
	.cfi_def_cfa 7, 8
# SUCC: EXIT [always] 
	ret	
	.cfi_endproc
.LFE3098:
	.size	_ZSt10__distanceIPKcENSt15iterator_traitsIT_E15difference_typeES3_S3_St26random_access_iterator_tag, .-_ZSt10__distanceIPKcENSt15iterator_traitsIT_E15difference_typeES3_S3_St26random_access_iterator_tag
	.weak	_ZTVN5cgicc18HTMLBooleanElementINS_6divTagEEE
	.section	.data.rel.ro._ZTVN5cgicc18HTMLBooleanElementINS_6divTagEEE,"awG",@progbits,_ZTVN5cgicc18HTMLBooleanElementINS_6divTagEEE,comdat
	.align 8
	.type	_ZTVN5cgicc18HTMLBooleanElementINS_6divTagEEE, @object
	.size	_ZTVN5cgicc18HTMLBooleanElementINS_6divTagEEE, 72
_ZTVN5cgicc18HTMLBooleanElementINS_6divTagEEE:
	.quad	0
	.quad	_ZTIN5cgicc18HTMLBooleanElementINS_6divTagEEE
	.quad	_ZN5cgicc18HTMLBooleanElementINS_6divTagEED1Ev
	.quad	_ZN5cgicc18HTMLBooleanElementINS_6divTagEED0Ev
	.quad	_ZNK5cgicc11HTMLElement6renderERSo
	.quad	_ZNK5cgicc18HTMLBooleanElementINS_6divTagEE7getNameEv
	.quad	_ZNK5cgicc18HTMLBooleanElementINS_6divTagEE5cloneEv
	.quad	_ZNK5cgicc18HTMLBooleanElementINS_6divTagEE9swapStateEv
	.quad	_ZNK5cgicc18HTMLBooleanElementINS_6divTagEE8getStateEv
	.weak	_ZTVN5cgicc17HTMLAtomicElementINS_5hrTagEEE
	.section	.data.rel.ro._ZTVN5cgicc17HTMLAtomicElementINS_5hrTagEEE,"awG",@progbits,_ZTVN5cgicc17HTMLAtomicElementINS_5hrTagEEE,comdat
	.align 8
	.type	_ZTVN5cgicc17HTMLAtomicElementINS_5hrTagEEE, @object
	.size	_ZTVN5cgicc17HTMLAtomicElementINS_5hrTagEEE, 72
_ZTVN5cgicc17HTMLAtomicElementINS_5hrTagEEE:
	.quad	0
	.quad	_ZTIN5cgicc17HTMLAtomicElementINS_5hrTagEEE
	.quad	_ZN5cgicc17HTMLAtomicElementINS_5hrTagEED1Ev
	.quad	_ZN5cgicc17HTMLAtomicElementINS_5hrTagEED0Ev
	.quad	_ZNK5cgicc11HTMLElement6renderERSo
	.quad	_ZNK5cgicc17HTMLAtomicElementINS_5hrTagEE7getNameEv
	.quad	_ZNK5cgicc17HTMLAtomicElementINS_5hrTagEE5cloneEv
	.quad	_ZNK5cgicc11HTMLElement9swapStateEv
	.quad	_ZNK5cgicc11HTMLElement8getStateEv
	.weak	_ZTVN5cgicc17HTMLAtomicElementINS_5brTagEEE
	.section	.data.rel.ro._ZTVN5cgicc17HTMLAtomicElementINS_5brTagEEE,"awG",@progbits,_ZTVN5cgicc17HTMLAtomicElementINS_5brTagEEE,comdat
	.align 8
	.type	_ZTVN5cgicc17HTMLAtomicElementINS_5brTagEEE, @object
	.size	_ZTVN5cgicc17HTMLAtomicElementINS_5brTagEEE, 72
_ZTVN5cgicc17HTMLAtomicElementINS_5brTagEEE:
	.quad	0
	.quad	_ZTIN5cgicc17HTMLAtomicElementINS_5brTagEEE
	.quad	_ZN5cgicc17HTMLAtomicElementINS_5brTagEED1Ev
	.quad	_ZN5cgicc17HTMLAtomicElementINS_5brTagEED0Ev
	.quad	_ZNK5cgicc11HTMLElement6renderERSo
	.quad	_ZNK5cgicc17HTMLAtomicElementINS_5brTagEE7getNameEv
	.quad	_ZNK5cgicc17HTMLAtomicElementINS_5brTagEE5cloneEv
	.quad	_ZNK5cgicc11HTMLElement9swapStateEv
	.quad	_ZNK5cgicc11HTMLElement8getStateEv
	.weak	_ZTVN5cgicc18HTMLBooleanElementINS_5h1TagEEE
	.section	.data.rel.ro._ZTVN5cgicc18HTMLBooleanElementINS_5h1TagEEE,"awG",@progbits,_ZTVN5cgicc18HTMLBooleanElementINS_5h1TagEEE,comdat
	.align 8
	.type	_ZTVN5cgicc18HTMLBooleanElementINS_5h1TagEEE, @object
	.size	_ZTVN5cgicc18HTMLBooleanElementINS_5h1TagEEE, 72
_ZTVN5cgicc18HTMLBooleanElementINS_5h1TagEEE:
	.quad	0
	.quad	_ZTIN5cgicc18HTMLBooleanElementINS_5h1TagEEE
	.quad	_ZN5cgicc18HTMLBooleanElementINS_5h1TagEED1Ev
	.quad	_ZN5cgicc18HTMLBooleanElementINS_5h1TagEED0Ev
	.quad	_ZNK5cgicc11HTMLElement6renderERSo
	.quad	_ZNK5cgicc18HTMLBooleanElementINS_5h1TagEE7getNameEv
	.quad	_ZNK5cgicc18HTMLBooleanElementINS_5h1TagEE5cloneEv
	.quad	_ZNK5cgicc18HTMLBooleanElementINS_5h1TagEE9swapStateEv
	.quad	_ZNK5cgicc18HTMLBooleanElementINS_5h1TagEE8getStateEv
	.weak	_ZTVN5cgicc18HTMLBooleanElementINS_7bodyTagEEE
	.section	.data.rel.ro._ZTVN5cgicc18HTMLBooleanElementINS_7bodyTagEEE,"awG",@progbits,_ZTVN5cgicc18HTMLBooleanElementINS_7bodyTagEEE,comdat
	.align 8
	.type	_ZTVN5cgicc18HTMLBooleanElementINS_7bodyTagEEE, @object
	.size	_ZTVN5cgicc18HTMLBooleanElementINS_7bodyTagEEE, 72
_ZTVN5cgicc18HTMLBooleanElementINS_7bodyTagEEE:
	.quad	0
	.quad	_ZTIN5cgicc18HTMLBooleanElementINS_7bodyTagEEE
	.quad	_ZN5cgicc18HTMLBooleanElementINS_7bodyTagEED1Ev
	.quad	_ZN5cgicc18HTMLBooleanElementINS_7bodyTagEED0Ev
	.quad	_ZNK5cgicc11HTMLElement6renderERSo
	.quad	_ZNK5cgicc18HTMLBooleanElementINS_7bodyTagEE7getNameEv
	.quad	_ZNK5cgicc18HTMLBooleanElementINS_7bodyTagEE5cloneEv
	.quad	_ZNK5cgicc18HTMLBooleanElementINS_7bodyTagEE9swapStateEv
	.quad	_ZNK5cgicc18HTMLBooleanElementINS_7bodyTagEE8getStateEv
	.weak	_ZTVN5cgicc18HTMLBooleanElementINS_8titleTagEEE
	.section	.data.rel.ro._ZTVN5cgicc18HTMLBooleanElementINS_8titleTagEEE,"awG",@progbits,_ZTVN5cgicc18HTMLBooleanElementINS_8titleTagEEE,comdat
	.align 8
	.type	_ZTVN5cgicc18HTMLBooleanElementINS_8titleTagEEE, @object
	.size	_ZTVN5cgicc18HTMLBooleanElementINS_8titleTagEEE, 72
_ZTVN5cgicc18HTMLBooleanElementINS_8titleTagEEE:
	.quad	0
	.quad	_ZTIN5cgicc18HTMLBooleanElementINS_8titleTagEEE
	.quad	_ZN5cgicc18HTMLBooleanElementINS_8titleTagEED1Ev
	.quad	_ZN5cgicc18HTMLBooleanElementINS_8titleTagEED0Ev
	.quad	_ZNK5cgicc11HTMLElement6renderERSo
	.quad	_ZNK5cgicc18HTMLBooleanElementINS_8titleTagEE7getNameEv
	.quad	_ZNK5cgicc18HTMLBooleanElementINS_8titleTagEE5cloneEv
	.quad	_ZNK5cgicc18HTMLBooleanElementINS_8titleTagEE9swapStateEv
	.quad	_ZNK5cgicc18HTMLBooleanElementINS_8titleTagEE8getStateEv
	.weak	_ZTVN5cgicc18HTMLBooleanElementINS_7headTagEEE
	.section	.data.rel.ro._ZTVN5cgicc18HTMLBooleanElementINS_7headTagEEE,"awG",@progbits,_ZTVN5cgicc18HTMLBooleanElementINS_7headTagEEE,comdat
	.align 8
	.type	_ZTVN5cgicc18HTMLBooleanElementINS_7headTagEEE, @object
	.size	_ZTVN5cgicc18HTMLBooleanElementINS_7headTagEEE, 72
_ZTVN5cgicc18HTMLBooleanElementINS_7headTagEEE:
	.quad	0
	.quad	_ZTIN5cgicc18HTMLBooleanElementINS_7headTagEEE
	.quad	_ZN5cgicc18HTMLBooleanElementINS_7headTagEED1Ev
	.quad	_ZN5cgicc18HTMLBooleanElementINS_7headTagEED0Ev
	.quad	_ZNK5cgicc11HTMLElement6renderERSo
	.quad	_ZNK5cgicc18HTMLBooleanElementINS_7headTagEE7getNameEv
	.quad	_ZNK5cgicc18HTMLBooleanElementINS_7headTagEE5cloneEv
	.quad	_ZNK5cgicc18HTMLBooleanElementINS_7headTagEE9swapStateEv
	.quad	_ZNK5cgicc18HTMLBooleanElementINS_7headTagEE8getStateEv
	.weak	_ZTVN5cgicc18HTMLBooleanElementINS_7htmlTagEEE
	.section	.data.rel.ro._ZTVN5cgicc18HTMLBooleanElementINS_7htmlTagEEE,"awG",@progbits,_ZTVN5cgicc18HTMLBooleanElementINS_7htmlTagEEE,comdat
	.align 8
	.type	_ZTVN5cgicc18HTMLBooleanElementINS_7htmlTagEEE, @object
	.size	_ZTVN5cgicc18HTMLBooleanElementINS_7htmlTagEEE, 72
_ZTVN5cgicc18HTMLBooleanElementINS_7htmlTagEEE:
	.quad	0
	.quad	_ZTIN5cgicc18HTMLBooleanElementINS_7htmlTagEEE
	.quad	_ZN5cgicc18HTMLBooleanElementINS_7htmlTagEED1Ev
	.quad	_ZN5cgicc18HTMLBooleanElementINS_7htmlTagEED0Ev
	.quad	_ZNK5cgicc11HTMLElement6renderERSo
	.quad	_ZNK5cgicc18HTMLBooleanElementINS_7htmlTagEE7getNameEv
	.quad	_ZNK5cgicc18HTMLBooleanElementINS_7htmlTagEE5cloneEv
	.quad	_ZNK5cgicc18HTMLBooleanElementINS_7htmlTagEE9swapStateEv
	.quad	_ZNK5cgicc18HTMLBooleanElementINS_7htmlTagEE8getStateEv
	.weak	_ZTIN5cgicc18HTMLBooleanElementINS_6divTagEEE
	.section	.data.rel.ro._ZTIN5cgicc18HTMLBooleanElementINS_6divTagEEE,"awG",@progbits,_ZTIN5cgicc18HTMLBooleanElementINS_6divTagEEE,comdat
	.align 8
	.type	_ZTIN5cgicc18HTMLBooleanElementINS_6divTagEEE, @object
	.size	_ZTIN5cgicc18HTMLBooleanElementINS_6divTagEEE, 24
_ZTIN5cgicc18HTMLBooleanElementINS_6divTagEEE:
# <anonymous>:
# <anonymous>:
	.quad	_ZTVN10__cxxabiv120__si_class_type_infoE+16
# <anonymous>:
	.quad	_ZTSN5cgicc18HTMLBooleanElementINS_6divTagEEE
# <anonymous>:
	.quad	_ZTIN5cgicc11HTMLElementE
	.weak	_ZTSN5cgicc18HTMLBooleanElementINS_6divTagEEE
	.section	.rodata._ZTSN5cgicc18HTMLBooleanElementINS_6divTagEEE,"aG",@progbits,_ZTSN5cgicc18HTMLBooleanElementINS_6divTagEEE,comdat
	.align 32
	.type	_ZTSN5cgicc18HTMLBooleanElementINS_6divTagEEE, @object
	.size	_ZTSN5cgicc18HTMLBooleanElementINS_6divTagEEE, 42
_ZTSN5cgicc18HTMLBooleanElementINS_6divTagEEE:
	.string	"N5cgicc18HTMLBooleanElementINS_6divTagEEE"
	.weak	_ZTIN5cgicc17HTMLAtomicElementINS_5hrTagEEE
	.section	.data.rel.ro._ZTIN5cgicc17HTMLAtomicElementINS_5hrTagEEE,"awG",@progbits,_ZTIN5cgicc17HTMLAtomicElementINS_5hrTagEEE,comdat
	.align 8
	.type	_ZTIN5cgicc17HTMLAtomicElementINS_5hrTagEEE, @object
	.size	_ZTIN5cgicc17HTMLAtomicElementINS_5hrTagEEE, 24
_ZTIN5cgicc17HTMLAtomicElementINS_5hrTagEEE:
# <anonymous>:
# <anonymous>:
	.quad	_ZTVN10__cxxabiv120__si_class_type_infoE+16
# <anonymous>:
	.quad	_ZTSN5cgicc17HTMLAtomicElementINS_5hrTagEEE
# <anonymous>:
	.quad	_ZTIN5cgicc11HTMLElementE
	.weak	_ZTSN5cgicc17HTMLAtomicElementINS_5hrTagEEE
	.section	.rodata._ZTSN5cgicc17HTMLAtomicElementINS_5hrTagEEE,"aG",@progbits,_ZTSN5cgicc17HTMLAtomicElementINS_5hrTagEEE,comdat
	.align 32
	.type	_ZTSN5cgicc17HTMLAtomicElementINS_5hrTagEEE, @object
	.size	_ZTSN5cgicc17HTMLAtomicElementINS_5hrTagEEE, 40
_ZTSN5cgicc17HTMLAtomicElementINS_5hrTagEEE:
	.string	"N5cgicc17HTMLAtomicElementINS_5hrTagEEE"
	.weak	_ZTIN5cgicc17HTMLAtomicElementINS_5brTagEEE
	.section	.data.rel.ro._ZTIN5cgicc17HTMLAtomicElementINS_5brTagEEE,"awG",@progbits,_ZTIN5cgicc17HTMLAtomicElementINS_5brTagEEE,comdat
	.align 8
	.type	_ZTIN5cgicc17HTMLAtomicElementINS_5brTagEEE, @object
	.size	_ZTIN5cgicc17HTMLAtomicElementINS_5brTagEEE, 24
_ZTIN5cgicc17HTMLAtomicElementINS_5brTagEEE:
# <anonymous>:
# <anonymous>:
	.quad	_ZTVN10__cxxabiv120__si_class_type_infoE+16
# <anonymous>:
	.quad	_ZTSN5cgicc17HTMLAtomicElementINS_5brTagEEE
# <anonymous>:
	.quad	_ZTIN5cgicc11HTMLElementE
	.weak	_ZTSN5cgicc17HTMLAtomicElementINS_5brTagEEE
	.section	.rodata._ZTSN5cgicc17HTMLAtomicElementINS_5brTagEEE,"aG",@progbits,_ZTSN5cgicc17HTMLAtomicElementINS_5brTagEEE,comdat
	.align 32
	.type	_ZTSN5cgicc17HTMLAtomicElementINS_5brTagEEE, @object
	.size	_ZTSN5cgicc17HTMLAtomicElementINS_5brTagEEE, 40
_ZTSN5cgicc17HTMLAtomicElementINS_5brTagEEE:
	.string	"N5cgicc17HTMLAtomicElementINS_5brTagEEE"
	.weak	_ZTIN5cgicc18HTMLBooleanElementINS_5h1TagEEE
	.section	.data.rel.ro._ZTIN5cgicc18HTMLBooleanElementINS_5h1TagEEE,"awG",@progbits,_ZTIN5cgicc18HTMLBooleanElementINS_5h1TagEEE,comdat
	.align 8
	.type	_ZTIN5cgicc18HTMLBooleanElementINS_5h1TagEEE, @object
	.size	_ZTIN5cgicc18HTMLBooleanElementINS_5h1TagEEE, 24
_ZTIN5cgicc18HTMLBooleanElementINS_5h1TagEEE:
# <anonymous>:
# <anonymous>:
	.quad	_ZTVN10__cxxabiv120__si_class_type_infoE+16
# <anonymous>:
	.quad	_ZTSN5cgicc18HTMLBooleanElementINS_5h1TagEEE
# <anonymous>:
	.quad	_ZTIN5cgicc11HTMLElementE
	.weak	_ZTSN5cgicc18HTMLBooleanElementINS_5h1TagEEE
	.section	.rodata._ZTSN5cgicc18HTMLBooleanElementINS_5h1TagEEE,"aG",@progbits,_ZTSN5cgicc18HTMLBooleanElementINS_5h1TagEEE,comdat
	.align 32
	.type	_ZTSN5cgicc18HTMLBooleanElementINS_5h1TagEEE, @object
	.size	_ZTSN5cgicc18HTMLBooleanElementINS_5h1TagEEE, 41
_ZTSN5cgicc18HTMLBooleanElementINS_5h1TagEEE:
	.string	"N5cgicc18HTMLBooleanElementINS_5h1TagEEE"
	.weak	_ZTIN5cgicc18HTMLBooleanElementINS_7bodyTagEEE
	.section	.data.rel.ro._ZTIN5cgicc18HTMLBooleanElementINS_7bodyTagEEE,"awG",@progbits,_ZTIN5cgicc18HTMLBooleanElementINS_7bodyTagEEE,comdat
	.align 8
	.type	_ZTIN5cgicc18HTMLBooleanElementINS_7bodyTagEEE, @object
	.size	_ZTIN5cgicc18HTMLBooleanElementINS_7bodyTagEEE, 24
_ZTIN5cgicc18HTMLBooleanElementINS_7bodyTagEEE:
# <anonymous>:
# <anonymous>:
	.quad	_ZTVN10__cxxabiv120__si_class_type_infoE+16
# <anonymous>:
	.quad	_ZTSN5cgicc18HTMLBooleanElementINS_7bodyTagEEE
# <anonymous>:
	.quad	_ZTIN5cgicc11HTMLElementE
	.weak	_ZTSN5cgicc18HTMLBooleanElementINS_7bodyTagEEE
	.section	.rodata._ZTSN5cgicc18HTMLBooleanElementINS_7bodyTagEEE,"aG",@progbits,_ZTSN5cgicc18HTMLBooleanElementINS_7bodyTagEEE,comdat
	.align 32
	.type	_ZTSN5cgicc18HTMLBooleanElementINS_7bodyTagEEE, @object
	.size	_ZTSN5cgicc18HTMLBooleanElementINS_7bodyTagEEE, 43
_ZTSN5cgicc18HTMLBooleanElementINS_7bodyTagEEE:
	.string	"N5cgicc18HTMLBooleanElementINS_7bodyTagEEE"
	.weak	_ZTIN5cgicc18HTMLBooleanElementINS_8titleTagEEE
	.section	.data.rel.ro._ZTIN5cgicc18HTMLBooleanElementINS_8titleTagEEE,"awG",@progbits,_ZTIN5cgicc18HTMLBooleanElementINS_8titleTagEEE,comdat
	.align 8
	.type	_ZTIN5cgicc18HTMLBooleanElementINS_8titleTagEEE, @object
	.size	_ZTIN5cgicc18HTMLBooleanElementINS_8titleTagEEE, 24
_ZTIN5cgicc18HTMLBooleanElementINS_8titleTagEEE:
# <anonymous>:
# <anonymous>:
	.quad	_ZTVN10__cxxabiv120__si_class_type_infoE+16
# <anonymous>:
	.quad	_ZTSN5cgicc18HTMLBooleanElementINS_8titleTagEEE
# <anonymous>:
	.quad	_ZTIN5cgicc11HTMLElementE
	.weak	_ZTSN5cgicc18HTMLBooleanElementINS_8titleTagEEE
	.section	.rodata._ZTSN5cgicc18HTMLBooleanElementINS_8titleTagEEE,"aG",@progbits,_ZTSN5cgicc18HTMLBooleanElementINS_8titleTagEEE,comdat
	.align 32
	.type	_ZTSN5cgicc18HTMLBooleanElementINS_8titleTagEEE, @object
	.size	_ZTSN5cgicc18HTMLBooleanElementINS_8titleTagEEE, 44
_ZTSN5cgicc18HTMLBooleanElementINS_8titleTagEEE:
	.string	"N5cgicc18HTMLBooleanElementINS_8titleTagEEE"
	.weak	_ZTIN5cgicc18HTMLBooleanElementINS_7headTagEEE
	.section	.data.rel.ro._ZTIN5cgicc18HTMLBooleanElementINS_7headTagEEE,"awG",@progbits,_ZTIN5cgicc18HTMLBooleanElementINS_7headTagEEE,comdat
	.align 8
	.type	_ZTIN5cgicc18HTMLBooleanElementINS_7headTagEEE, @object
	.size	_ZTIN5cgicc18HTMLBooleanElementINS_7headTagEEE, 24
_ZTIN5cgicc18HTMLBooleanElementINS_7headTagEEE:
# <anonymous>:
# <anonymous>:
	.quad	_ZTVN10__cxxabiv120__si_class_type_infoE+16
# <anonymous>:
	.quad	_ZTSN5cgicc18HTMLBooleanElementINS_7headTagEEE
# <anonymous>:
	.quad	_ZTIN5cgicc11HTMLElementE
	.weak	_ZTSN5cgicc18HTMLBooleanElementINS_7headTagEEE
	.section	.rodata._ZTSN5cgicc18HTMLBooleanElementINS_7headTagEEE,"aG",@progbits,_ZTSN5cgicc18HTMLBooleanElementINS_7headTagEEE,comdat
	.align 32
	.type	_ZTSN5cgicc18HTMLBooleanElementINS_7headTagEEE, @object
	.size	_ZTSN5cgicc18HTMLBooleanElementINS_7headTagEEE, 43
_ZTSN5cgicc18HTMLBooleanElementINS_7headTagEEE:
	.string	"N5cgicc18HTMLBooleanElementINS_7headTagEEE"
	.weak	_ZTIN5cgicc18HTMLBooleanElementINS_7htmlTagEEE
	.section	.data.rel.ro._ZTIN5cgicc18HTMLBooleanElementINS_7htmlTagEEE,"awG",@progbits,_ZTIN5cgicc18HTMLBooleanElementINS_7htmlTagEEE,comdat
	.align 8
	.type	_ZTIN5cgicc18HTMLBooleanElementINS_7htmlTagEEE, @object
	.size	_ZTIN5cgicc18HTMLBooleanElementINS_7htmlTagEEE, 24
_ZTIN5cgicc18HTMLBooleanElementINS_7htmlTagEEE:
# <anonymous>:
# <anonymous>:
	.quad	_ZTVN10__cxxabiv120__si_class_type_infoE+16
# <anonymous>:
	.quad	_ZTSN5cgicc18HTMLBooleanElementINS_7htmlTagEEE
# <anonymous>:
	.quad	_ZTIN5cgicc11HTMLElementE
	.weak	_ZTSN5cgicc18HTMLBooleanElementINS_7htmlTagEEE
	.section	.rodata._ZTSN5cgicc18HTMLBooleanElementINS_7htmlTagEEE,"aG",@progbits,_ZTSN5cgicc18HTMLBooleanElementINS_7htmlTagEEE,comdat
	.align 32
	.type	_ZTSN5cgicc18HTMLBooleanElementINS_7htmlTagEEE, @object
	.size	_ZTSN5cgicc18HTMLBooleanElementINS_7htmlTagEEE, 43
_ZTSN5cgicc18HTMLBooleanElementINS_7htmlTagEEE:
	.string	"N5cgicc18HTMLBooleanElementINS_7htmlTagEEE"
	.text
	.type	_Z41__static_initialization_and_destruction_0ii, @function
_Z41__static_initialization_and_destruction_0ii:
.LFB3247:
	.cfi_startproc
	endbr64	
# BLOCK 2 seq:0
# PRED: ENTRY (FALLTHRU)
	pushq	%rbp	#
	.cfi_def_cfa_offset 16
	.cfi_offset 6, -16
	movq	%rsp, %rbp	#,
	.cfi_def_cfa_register 6
	subq	$16, %rsp	#,
	movl	%edi, -4(%rbp)	# __initialize_p, __initialize_p
	movl	%esi, -8(%rbp)	# __priority, __priority
# cgi.cpp:143: }
	cmpl	$1, -4(%rbp)	#, __initialize_p
# SUCC: 3 (FALLTHRU) 5
	jne	.L276	#,
# BLOCK 3 seq:1
# PRED: 2 (FALLTHRU)
# cgi.cpp:143: }
	cmpl	$65535, -8(%rbp)	#, __priority
# SUCC: 4 (FALLTHRU) 5
	jne	.L276	#,
# BLOCK 4 seq:2
# PRED: 3 (FALLTHRU)
# /usr/include/c++/11/iostream:74:   static ios_base::Init __ioinit;
	leaq	_ZStL8__ioinit(%rip), %rax	#, tmp82
	movq	%rax, %rdi	# tmp82,
	call	_ZNSt8ios_base4InitC1Ev@PLT	#
	leaq	__dso_handle(%rip), %rax	#, tmp83
	movq	%rax, %rdx	# tmp83,
	leaq	_ZStL8__ioinit(%rip), %rax	#, tmp84
	movq	%rax, %rsi	# tmp84,
	movq	_ZNSt8ios_base4InitD1Ev@GOTPCREL(%rip), %rax	#, tmp86
	movq	%rax, %rdi	# tmp85,
# SUCC: 5 (FALLTHRU)
	call	__cxa_atexit@PLT	#
# BLOCK 5 seq:3
# PRED: 4 (FALLTHRU) 2 3
.L276:
# cgi.cpp:143: }
	nop	
	leave	
	.cfi_def_cfa 7, 8
# SUCC: EXIT [always] 
	ret	
	.cfi_endproc
.LFE3247:
	.size	_Z41__static_initialization_and_destruction_0ii, .-_Z41__static_initialization_and_destruction_0ii
	.weak	_ZN5cgicc18HTMLBooleanElementINS_7htmlTagEE6sStateE
	.section	.bss._ZN5cgicc18HTMLBooleanElementINS_7htmlTagEE6sStateE,"awG",@nobits,_ZN5cgicc18HTMLBooleanElementINS_7htmlTagEE6sStateE,comdat
	.type	_ZN5cgicc18HTMLBooleanElementINS_7htmlTagEE6sStateE, @gnu_unique_object
	.size	_ZN5cgicc18HTMLBooleanElementINS_7htmlTagEE6sStateE, 1
_ZN5cgicc18HTMLBooleanElementINS_7htmlTagEE6sStateE:
	.zero	1
	.weak	_ZN5cgicc18HTMLBooleanElementINS_7headTagEE6sStateE
	.section	.bss._ZN5cgicc18HTMLBooleanElementINS_7headTagEE6sStateE,"awG",@nobits,_ZN5cgicc18HTMLBooleanElementINS_7headTagEE6sStateE,comdat
	.type	_ZN5cgicc18HTMLBooleanElementINS_7headTagEE6sStateE, @gnu_unique_object
	.size	_ZN5cgicc18HTMLBooleanElementINS_7headTagEE6sStateE, 1
_ZN5cgicc18HTMLBooleanElementINS_7headTagEE6sStateE:
	.zero	1
	.weak	_ZN5cgicc18HTMLBooleanElementINS_8titleTagEE6sStateE
	.section	.bss._ZN5cgicc18HTMLBooleanElementINS_8titleTagEE6sStateE,"awG",@nobits,_ZN5cgicc18HTMLBooleanElementINS_8titleTagEE6sStateE,comdat
	.type	_ZN5cgicc18HTMLBooleanElementINS_8titleTagEE6sStateE, @gnu_unique_object
	.size	_ZN5cgicc18HTMLBooleanElementINS_8titleTagEE6sStateE, 1
_ZN5cgicc18HTMLBooleanElementINS_8titleTagEE6sStateE:
	.zero	1
	.weak	_ZN5cgicc18HTMLBooleanElementINS_7bodyTagEE6sStateE
	.section	.bss._ZN5cgicc18HTMLBooleanElementINS_7bodyTagEE6sStateE,"awG",@nobits,_ZN5cgicc18HTMLBooleanElementINS_7bodyTagEE6sStateE,comdat
	.type	_ZN5cgicc18HTMLBooleanElementINS_7bodyTagEE6sStateE, @gnu_unique_object
	.size	_ZN5cgicc18HTMLBooleanElementINS_7bodyTagEE6sStateE, 1
_ZN5cgicc18HTMLBooleanElementINS_7bodyTagEE6sStateE:
	.zero	1
	.weak	_ZN5cgicc18HTMLBooleanElementINS_5h1TagEE6sStateE
	.section	.bss._ZN5cgicc18HTMLBooleanElementINS_5h1TagEE6sStateE,"awG",@nobits,_ZN5cgicc18HTMLBooleanElementINS_5h1TagEE6sStateE,comdat
	.type	_ZN5cgicc18HTMLBooleanElementINS_5h1TagEE6sStateE, @gnu_unique_object
	.size	_ZN5cgicc18HTMLBooleanElementINS_5h1TagEE6sStateE, 1
_ZN5cgicc18HTMLBooleanElementINS_5h1TagEE6sStateE:
	.zero	1
	.weak	_ZN5cgicc18HTMLBooleanElementINS_6divTagEE6sStateE
	.section	.bss._ZN5cgicc18HTMLBooleanElementINS_6divTagEE6sStateE,"awG",@nobits,_ZN5cgicc18HTMLBooleanElementINS_6divTagEE6sStateE,comdat
	.type	_ZN5cgicc18HTMLBooleanElementINS_6divTagEE6sStateE, @gnu_unique_object
	.size	_ZN5cgicc18HTMLBooleanElementINS_6divTagEE6sStateE, 1
_ZN5cgicc18HTMLBooleanElementINS_6divTagEE6sStateE:
	.zero	1
	.section	.text._ZNK5cgicc18HTMLBooleanElementINS_6divTagEE7getNameEv,"axG",@progbits,_ZNK5cgicc18HTMLBooleanElementINS_6divTagEE7getNameEv,comdat
	.align 2
	.weak	_ZNK5cgicc18HTMLBooleanElementINS_6divTagEE7getNameEv
	.type	_ZNK5cgicc18HTMLBooleanElementINS_6divTagEE7getNameEv, @function
_ZNK5cgicc18HTMLBooleanElementINS_6divTagEE7getNameEv:
.LFB3248:
	.cfi_startproc
	endbr64	
# BLOCK 2 seq:0
# PRED: ENTRY (FALLTHRU)
	pushq	%rbp	#
	.cfi_def_cfa_offset 16
	.cfi_offset 6, -16
	movq	%rsp, %rbp	#,
	.cfi_def_cfa_register 6
	subq	$16, %rsp	#,
	movq	%rdi, -8(%rbp)	# this, this
# ../cgicc/HTMLBooleanElement.h:151:     { return Tag::getName(); }
	call	_ZN5cgicc6divTag7getNameEv	#
# ../cgicc/HTMLBooleanElement.h:151:     { return Tag::getName(); }
	leave	
	.cfi_def_cfa 7, 8
# SUCC: EXIT [always] 
	ret	
	.cfi_endproc
.LFE3248:
	.size	_ZNK5cgicc18HTMLBooleanElementINS_6divTagEE7getNameEv, .-_ZNK5cgicc18HTMLBooleanElementINS_6divTagEE7getNameEv
	.section	.text._ZN5cgicc18HTMLBooleanElementINS_6divTagEEC2ERKS2_,"axG",@progbits,_ZN5cgicc18HTMLBooleanElementINS_6divTagEEC5ERKS2_,comdat
	.align 2
	.weak	_ZN5cgicc18HTMLBooleanElementINS_6divTagEEC2ERKS2_
	.type	_ZN5cgicc18HTMLBooleanElementINS_6divTagEEC2ERKS2_, @function
_ZN5cgicc18HTMLBooleanElementINS_6divTagEEC2ERKS2_:
.LFB3251:
	.cfi_startproc
	endbr64	
# BLOCK 2 seq:0
# PRED: ENTRY (FALLTHRU)
	pushq	%rbp	#
	.cfi_def_cfa_offset 16
	.cfi_offset 6, -16
	movq	%rsp, %rbp	#,
	.cfi_def_cfa_register 6
	subq	$16, %rsp	#,
	movq	%rdi, -8(%rbp)	# this, this
	movq	%rsi, -16(%rbp)	# D.62068, D.62068
# ../cgicc/HTMLBooleanElement.h:62:   class HTMLBooleanElement : public HTMLElement 
	movq	-8(%rbp), %rax	# this, _1
	movq	-16(%rbp), %rdx	# D.62068, _2
	movq	%rdx, %rsi	# _2,
	movq	%rax, %rdi	# _1,
	call	_ZN5cgicc11HTMLElementC2ERKS0_@PLT	#
	leaq	16+_ZTVN5cgicc18HTMLBooleanElementINS_6divTagEEE(%rip), %rdx	#, _3
	movq	-8(%rbp), %rax	# this, tmp86
	movq	%rdx, (%rax)	# _3, this_6(D)->D.62055.D.60301._vptr.MStreamable
	nop	
	leave	
	.cfi_def_cfa 7, 8
# SUCC: EXIT [always] 
	ret	
	.cfi_endproc
.LFE3251:
	.size	_ZN5cgicc18HTMLBooleanElementINS_6divTagEEC2ERKS2_, .-_ZN5cgicc18HTMLBooleanElementINS_6divTagEEC2ERKS2_
	.weak	_ZN5cgicc18HTMLBooleanElementINS_6divTagEEC1ERKS2_
	.set	_ZN5cgicc18HTMLBooleanElementINS_6divTagEEC1ERKS2_,_ZN5cgicc18HTMLBooleanElementINS_6divTagEEC2ERKS2_
	.section	.text._ZNK5cgicc18HTMLBooleanElementINS_6divTagEE5cloneEv,"axG",@progbits,_ZNK5cgicc18HTMLBooleanElementINS_6divTagEE5cloneEv,comdat
	.align 2
	.weak	_ZNK5cgicc18HTMLBooleanElementINS_6divTagEE5cloneEv
	.type	_ZNK5cgicc18HTMLBooleanElementINS_6divTagEE5cloneEv, @function
_ZNK5cgicc18HTMLBooleanElementINS_6divTagEE5cloneEv:
.LFB3249:
	.cfi_startproc
	.cfi_personality 0x9b,DW.ref.__gxx_personality_v0
	.cfi_lsda 0x1b,.LLSDA3249
	endbr64	
# BLOCK 2 seq:0
# PRED: ENTRY (FALLTHRU)
	pushq	%rbp	#
	.cfi_def_cfa_offset 16
	.cfi_offset 6, -16
	movq	%rsp, %rbp	#,
	.cfi_def_cfa_register 6
	pushq	%r12	#
	pushq	%rbx	#
	subq	$16, %rsp	#,
	.cfi_offset 12, -24
	.cfi_offset 3, -32
	movq	%rdi, -24(%rbp)	# this, this
# ../cgicc/HTMLBooleanElement.h:141:     { return new HTMLBooleanElement<Tag>(*this); }
	movl	$64, %edi	#,
.LEHB101:
	call	_Znwm@PLT	#
.LEHE101:
	movq	%rax, %rbx	# tmp85, _3
	movq	-24(%rbp), %rax	# this, tmp86
	movq	%rax, %rsi	# tmp86,
	movq	%rbx, %rdi	# _3,
.LEHB102:
# SUCC: 4 (ABNORMAL,ABNORMAL_CALL,EH) 3 (FALLTHRU)
	call	_ZN5cgicc18HTMLBooleanElementINS_6divTagEEC1ERKS2_	#
.LEHE102:
# BLOCK 3 seq:1
# PRED: 2 (FALLTHRU)
# ../cgicc/HTMLBooleanElement.h:141:     { return new HTMLBooleanElement<Tag>(*this); }
	movq	%rbx, %rax	# _3, <retval>
# SUCC: 5 [always] 
	jmp	.L284	#
# BLOCK 4 seq:2
# PRED: 2 (ABNORMAL,ABNORMAL_CALL,EH)
.L283:
	endbr64	
# ../cgicc/HTMLBooleanElement.h:141:     { return new HTMLBooleanElement<Tag>(*this); }
	movq	%rax, %r12	#, tmp88
	movl	$64, %esi	#,
	movq	%rbx, %rdi	# _3,
	call	_ZdlPvm@PLT	#
	movq	%r12, %rax	# tmp88, D.70294
	movq	%rax, %rdi	# D.70294,
.LEHB103:
# SUCC:
	call	_Unwind_Resume@PLT	#
.LEHE103:
# BLOCK 5 seq:3
# PRED: 3 [always] 
.L284:
# ../cgicc/HTMLBooleanElement.h:141:     { return new HTMLBooleanElement<Tag>(*this); }
	addq	$16, %rsp	#,
	popq	%rbx	#
	popq	%r12	#
	popq	%rbp	#
	.cfi_def_cfa 7, 8
# SUCC: EXIT [always] 
	ret	
	.cfi_endproc
.LFE3249:
	.section	.gcc_except_table
.LLSDA3249:
	.byte	0xff	# @LPStart format (omit)
	.byte	0xff	# @TType format (omit)
	.byte	0x1	# call-site format (uleb128)
	.uleb128 .LLSDACSE3249-.LLSDACSB3249	# Call-site table length
.LLSDACSB3249:
	.uleb128 .LEHB101-.LFB3249	# region 0 start
	.uleb128 .LEHE101-.LEHB101	# length
	.uleb128 0	# landing pad
	.uleb128 0	# action
	.uleb128 .LEHB102-.LFB3249	# region 1 start
	.uleb128 .LEHE102-.LEHB102	# length
	.uleb128 .L283-.LFB3249	# landing pad
	.uleb128 0	# action
	.uleb128 .LEHB103-.LFB3249	# region 2 start
	.uleb128 .LEHE103-.LEHB103	# length
	.uleb128 0	# landing pad
	.uleb128 0	# action
.LLSDACSE3249:
	.section	.text._ZNK5cgicc18HTMLBooleanElementINS_6divTagEE5cloneEv,"axG",@progbits,_ZNK5cgicc18HTMLBooleanElementINS_6divTagEE5cloneEv,comdat
	.size	_ZNK5cgicc18HTMLBooleanElementINS_6divTagEE5cloneEv, .-_ZNK5cgicc18HTMLBooleanElementINS_6divTagEE5cloneEv
	.section	.text._ZNK5cgicc18HTMLBooleanElementINS_6divTagEE9swapStateEv,"axG",@progbits,_ZNK5cgicc18HTMLBooleanElementINS_6divTagEE9swapStateEv,comdat
	.align 2
	.weak	_ZNK5cgicc18HTMLBooleanElementINS_6divTagEE9swapStateEv
	.type	_ZNK5cgicc18HTMLBooleanElementINS_6divTagEE9swapStateEv, @function
_ZNK5cgicc18HTMLBooleanElementINS_6divTagEE9swapStateEv:
.LFB3253:
	.cfi_startproc
	endbr64	
# BLOCK 2 seq:0
# PRED: ENTRY (FALLTHRU)
	pushq	%rbp	#
	.cfi_def_cfa_offset 16
	.cfi_offset 6, -16
	movq	%rsp, %rbp	#,
	.cfi_def_cfa_register 6
	movq	%rdi, -8(%rbp)	# this, this
# ../cgicc/HTMLBooleanElement.h:165:     { sState = ! sState; }
	movzbl	_ZN5cgicc18HTMLBooleanElementINS_6divTagEE6sStateE(%rip), %eax	# sState, sState.12_1
	xorl	$1, %eax	#, _2
# ../cgicc/HTMLBooleanElement.h:165:     { sState = ! sState; }
	movb	%al, _ZN5cgicc18HTMLBooleanElementINS_6divTagEE6sStateE(%rip)	# _2, sState
# ../cgicc/HTMLBooleanElement.h:165:     { sState = ! sState; }
	nop	
	popq	%rbp	#
	.cfi_def_cfa 7, 8
# SUCC: EXIT [always] 
	ret	
	.cfi_endproc
.LFE3253:
	.size	_ZNK5cgicc18HTMLBooleanElementINS_6divTagEE9swapStateEv, .-_ZNK5cgicc18HTMLBooleanElementINS_6divTagEE9swapStateEv
	.section	.text._ZNK5cgicc18HTMLBooleanElementINS_6divTagEE8getStateEv,"axG",@progbits,_ZNK5cgicc18HTMLBooleanElementINS_6divTagEE8getStateEv,comdat
	.align 2
	.weak	_ZNK5cgicc18HTMLBooleanElementINS_6divTagEE8getStateEv
	.type	_ZNK5cgicc18HTMLBooleanElementINS_6divTagEE8getStateEv, @function
_ZNK5cgicc18HTMLBooleanElementINS_6divTagEE8getStateEv:
.LFB3254:
	.cfi_startproc
	endbr64	
# BLOCK 2 seq:0
# PRED: ENTRY (FALLTHRU)
	pushq	%rbp	#
	.cfi_def_cfa_offset 16
	.cfi_offset 6, -16
	movq	%rsp, %rbp	#,
	.cfi_def_cfa_register 6
	movq	%rdi, -8(%rbp)	# this, this
# ../cgicc/HTMLBooleanElement.h:173:     { return sState; }
	movzbl	_ZN5cgicc18HTMLBooleanElementINS_6divTagEE6sStateE(%rip), %eax	# sState, _2
# ../cgicc/HTMLBooleanElement.h:173:     { return sState; }
	popq	%rbp	#
	.cfi_def_cfa 7, 8
# SUCC: EXIT [always] 
	ret	
	.cfi_endproc
.LFE3254:
	.size	_ZNK5cgicc18HTMLBooleanElementINS_6divTagEE8getStateEv, .-_ZNK5cgicc18HTMLBooleanElementINS_6divTagEE8getStateEv
	.section	.text._ZNK5cgicc17HTMLAtomicElementINS_5hrTagEE7getNameEv,"axG",@progbits,_ZNK5cgicc17HTMLAtomicElementINS_5hrTagEE7getNameEv,comdat
	.align 2
	.weak	_ZNK5cgicc17HTMLAtomicElementINS_5hrTagEE7getNameEv
	.type	_ZNK5cgicc17HTMLAtomicElementINS_5hrTagEE7getNameEv, @function
_ZNK5cgicc17HTMLAtomicElementINS_5hrTagEE7getNameEv:
.LFB3255:
	.cfi_startproc
	endbr64	
# BLOCK 2 seq:0
# PRED: ENTRY (FALLTHRU)
	pushq	%rbp	#
	.cfi_def_cfa_offset 16
	.cfi_offset 6, -16
	movq	%rsp, %rbp	#,
	.cfi_def_cfa_register 6
	subq	$16, %rsp	#,
	movq	%rdi, -8(%rbp)	# this, this
# ../cgicc/HTMLAtomicElement.h:109:     { return Tag::getName(); }
	call	_ZN5cgicc5hrTag7getNameEv	#
# ../cgicc/HTMLAtomicElement.h:109:     { return Tag::getName(); }
	leave	
	.cfi_def_cfa 7, 8
# SUCC: EXIT [always] 
	ret	
	.cfi_endproc
.LFE3255:
	.size	_ZNK5cgicc17HTMLAtomicElementINS_5hrTagEE7getNameEv, .-_ZNK5cgicc17HTMLAtomicElementINS_5hrTagEE7getNameEv
	.section	.text._ZN5cgicc17HTMLAtomicElementINS_5hrTagEEC2ERKS2_,"axG",@progbits,_ZN5cgicc17HTMLAtomicElementINS_5hrTagEEC5ERKS2_,comdat
	.align 2
	.weak	_ZN5cgicc17HTMLAtomicElementINS_5hrTagEEC2ERKS2_
	.type	_ZN5cgicc17HTMLAtomicElementINS_5hrTagEEC2ERKS2_, @function
_ZN5cgicc17HTMLAtomicElementINS_5hrTagEEC2ERKS2_:
.LFB3258:
	.cfi_startproc
	endbr64	
# BLOCK 2 seq:0
# PRED: ENTRY (FALLTHRU)
	pushq	%rbp	#
	.cfi_def_cfa_offset 16
	.cfi_offset 6, -16
	movq	%rsp, %rbp	#,
	.cfi_def_cfa_register 6
	subq	$16, %rsp	#,
	movq	%rdi, -8(%rbp)	# this, this
	movq	%rsi, -16(%rbp)	# D.61964, D.61964
# ../cgicc/HTMLAtomicElement.h:56:   class HTMLAtomicElement : public HTMLElement 
	movq	-8(%rbp), %rax	# this, _1
	movq	-16(%rbp), %rdx	# D.61964, _2
	movq	%rdx, %rsi	# _2,
	movq	%rax, %rdi	# _1,
	call	_ZN5cgicc11HTMLElementC2ERKS0_@PLT	#
	leaq	16+_ZTVN5cgicc17HTMLAtomicElementINS_5hrTagEEE(%rip), %rdx	#, _3
	movq	-8(%rbp), %rax	# this, tmp86
	movq	%rdx, (%rax)	# _3, this_6(D)->D.61951.D.60301._vptr.MStreamable
	nop	
	leave	
	.cfi_def_cfa 7, 8
# SUCC: EXIT [always] 
	ret	
	.cfi_endproc
.LFE3258:
	.size	_ZN5cgicc17HTMLAtomicElementINS_5hrTagEEC2ERKS2_, .-_ZN5cgicc17HTMLAtomicElementINS_5hrTagEEC2ERKS2_
	.weak	_ZN5cgicc17HTMLAtomicElementINS_5hrTagEEC1ERKS2_
	.set	_ZN5cgicc17HTMLAtomicElementINS_5hrTagEEC1ERKS2_,_ZN5cgicc17HTMLAtomicElementINS_5hrTagEEC2ERKS2_
	.section	.text._ZNK5cgicc17HTMLAtomicElementINS_5hrTagEE5cloneEv,"axG",@progbits,_ZNK5cgicc17HTMLAtomicElementINS_5hrTagEE5cloneEv,comdat
	.align 2
	.weak	_ZNK5cgicc17HTMLAtomicElementINS_5hrTagEE5cloneEv
	.type	_ZNK5cgicc17HTMLAtomicElementINS_5hrTagEE5cloneEv, @function
_ZNK5cgicc17HTMLAtomicElementINS_5hrTagEE5cloneEv:
.LFB3256:
	.cfi_startproc
	.cfi_personality 0x9b,DW.ref.__gxx_personality_v0
	.cfi_lsda 0x1b,.LLSDA3256
	endbr64	
# BLOCK 2 seq:0
# PRED: ENTRY (FALLTHRU)
	pushq	%rbp	#
	.cfi_def_cfa_offset 16
	.cfi_offset 6, -16
	movq	%rsp, %rbp	#,
	.cfi_def_cfa_register 6
	pushq	%r12	#
	pushq	%rbx	#
	subq	$16, %rsp	#,
	.cfi_offset 12, -24
	.cfi_offset 3, -32
	movq	%rdi, -24(%rbp)	# this, this
# ../cgicc/HTMLAtomicElement.h:98:     { return new HTMLAtomicElement<Tag>(*this); }
	movl	$64, %edi	#,
.LEHB104:
	call	_Znwm@PLT	#
.LEHE104:
	movq	%rax, %rbx	# tmp85, _3
	movq	-24(%rbp), %rax	# this, tmp86
	movq	%rax, %rsi	# tmp86,
	movq	%rbx, %rdi	# _3,
.LEHB105:
# SUCC: 4 (ABNORMAL,ABNORMAL_CALL,EH) 3 (FALLTHRU)
	call	_ZN5cgicc17HTMLAtomicElementINS_5hrTagEEC1ERKS2_	#
.LEHE105:
# BLOCK 3 seq:1
# PRED: 2 (FALLTHRU)
# ../cgicc/HTMLAtomicElement.h:98:     { return new HTMLAtomicElement<Tag>(*this); }
	movq	%rbx, %rax	# _3, <retval>
# SUCC: 5 [always] 
	jmp	.L295	#
# BLOCK 4 seq:2
# PRED: 2 (ABNORMAL,ABNORMAL_CALL,EH)
.L294:
	endbr64	
# ../cgicc/HTMLAtomicElement.h:98:     { return new HTMLAtomicElement<Tag>(*this); }
	movq	%rax, %r12	#, tmp88
	movl	$64, %esi	#,
	movq	%rbx, %rdi	# _3,
	call	_ZdlPvm@PLT	#
	movq	%r12, %rax	# tmp88, D.70295
	movq	%rax, %rdi	# D.70295,
.LEHB106:
# SUCC:
	call	_Unwind_Resume@PLT	#
.LEHE106:
# BLOCK 5 seq:3
# PRED: 3 [always] 
.L295:
# ../cgicc/HTMLAtomicElement.h:98:     { return new HTMLAtomicElement<Tag>(*this); }
	addq	$16, %rsp	#,
	popq	%rbx	#
	popq	%r12	#
	popq	%rbp	#
	.cfi_def_cfa 7, 8
# SUCC: EXIT [always] 
	ret	
	.cfi_endproc
.LFE3256:
	.section	.gcc_except_table
.LLSDA3256:
	.byte	0xff	# @LPStart format (omit)
	.byte	0xff	# @TType format (omit)
	.byte	0x1	# call-site format (uleb128)
	.uleb128 .LLSDACSE3256-.LLSDACSB3256	# Call-site table length
.LLSDACSB3256:
	.uleb128 .LEHB104-.LFB3256	# region 0 start
	.uleb128 .LEHE104-.LEHB104	# length
	.uleb128 0	# landing pad
	.uleb128 0	# action
	.uleb128 .LEHB105-.LFB3256	# region 1 start
	.uleb128 .LEHE105-.LEHB105	# length
	.uleb128 .L294-.LFB3256	# landing pad
	.uleb128 0	# action
	.uleb128 .LEHB106-.LFB3256	# region 2 start
	.uleb128 .LEHE106-.LEHB106	# length
	.uleb128 0	# landing pad
	.uleb128 0	# action
.LLSDACSE3256:
	.section	.text._ZNK5cgicc17HTMLAtomicElementINS_5hrTagEE5cloneEv,"axG",@progbits,_ZNK5cgicc17HTMLAtomicElementINS_5hrTagEE5cloneEv,comdat
	.size	_ZNK5cgicc17HTMLAtomicElementINS_5hrTagEE5cloneEv, .-_ZNK5cgicc17HTMLAtomicElementINS_5hrTagEE5cloneEv
	.section	.text._ZNK5cgicc17HTMLAtomicElementINS_5brTagEE7getNameEv,"axG",@progbits,_ZNK5cgicc17HTMLAtomicElementINS_5brTagEE7getNameEv,comdat
	.align 2
	.weak	_ZNK5cgicc17HTMLAtomicElementINS_5brTagEE7getNameEv
	.type	_ZNK5cgicc17HTMLAtomicElementINS_5brTagEE7getNameEv, @function
_ZNK5cgicc17HTMLAtomicElementINS_5brTagEE7getNameEv:
.LFB3260:
	.cfi_startproc
	endbr64	
# BLOCK 2 seq:0
# PRED: ENTRY (FALLTHRU)
	pushq	%rbp	#
	.cfi_def_cfa_offset 16
	.cfi_offset 6, -16
	movq	%rsp, %rbp	#,
	.cfi_def_cfa_register 6
	subq	$16, %rsp	#,
	movq	%rdi, -8(%rbp)	# this, this
# ../cgicc/HTMLAtomicElement.h:109:     { return Tag::getName(); }
	call	_ZN5cgicc5brTag7getNameEv	#
# ../cgicc/HTMLAtomicElement.h:109:     { return Tag::getName(); }
	leave	
	.cfi_def_cfa 7, 8
# SUCC: EXIT [always] 
	ret	
	.cfi_endproc
.LFE3260:
	.size	_ZNK5cgicc17HTMLAtomicElementINS_5brTagEE7getNameEv, .-_ZNK5cgicc17HTMLAtomicElementINS_5brTagEE7getNameEv
	.section	.text._ZN5cgicc17HTMLAtomicElementINS_5brTagEEC2ERKS2_,"axG",@progbits,_ZN5cgicc17HTMLAtomicElementINS_5brTagEEC5ERKS2_,comdat
	.align 2
	.weak	_ZN5cgicc17HTMLAtomicElementINS_5brTagEEC2ERKS2_
	.type	_ZN5cgicc17HTMLAtomicElementINS_5brTagEEC2ERKS2_, @function
_ZN5cgicc17HTMLAtomicElementINS_5brTagEEC2ERKS2_:
.LFB3263:
	.cfi_startproc
	endbr64	
# BLOCK 2 seq:0
# PRED: ENTRY (FALLTHRU)
	pushq	%rbp	#
	.cfi_def_cfa_offset 16
	.cfi_offset 6, -16
	movq	%rsp, %rbp	#,
	.cfi_def_cfa_register 6
	subq	$16, %rsp	#,
	movq	%rdi, -8(%rbp)	# this, this
	movq	%rsi, -16(%rbp)	# D.61912, D.61912
# ../cgicc/HTMLAtomicElement.h:56:   class HTMLAtomicElement : public HTMLElement 
	movq	-8(%rbp), %rax	# this, _1
	movq	-16(%rbp), %rdx	# D.61912, _2
	movq	%rdx, %rsi	# _2,
	movq	%rax, %rdi	# _1,
	call	_ZN5cgicc11HTMLElementC2ERKS0_@PLT	#
	leaq	16+_ZTVN5cgicc17HTMLAtomicElementINS_5brTagEEE(%rip), %rdx	#, _3
	movq	-8(%rbp), %rax	# this, tmp86
	movq	%rdx, (%rax)	# _3, this_6(D)->D.61899.D.60301._vptr.MStreamable
	nop	
	leave	
	.cfi_def_cfa 7, 8
# SUCC: EXIT [always] 
	ret	
	.cfi_endproc
.LFE3263:
	.size	_ZN5cgicc17HTMLAtomicElementINS_5brTagEEC2ERKS2_, .-_ZN5cgicc17HTMLAtomicElementINS_5brTagEEC2ERKS2_
	.weak	_ZN5cgicc17HTMLAtomicElementINS_5brTagEEC1ERKS2_
	.set	_ZN5cgicc17HTMLAtomicElementINS_5brTagEEC1ERKS2_,_ZN5cgicc17HTMLAtomicElementINS_5brTagEEC2ERKS2_
	.section	.text._ZNK5cgicc17HTMLAtomicElementINS_5brTagEE5cloneEv,"axG",@progbits,_ZNK5cgicc17HTMLAtomicElementINS_5brTagEE5cloneEv,comdat
	.align 2
	.weak	_ZNK5cgicc17HTMLAtomicElementINS_5brTagEE5cloneEv
	.type	_ZNK5cgicc17HTMLAtomicElementINS_5brTagEE5cloneEv, @function
_ZNK5cgicc17HTMLAtomicElementINS_5brTagEE5cloneEv:
.LFB3261:
	.cfi_startproc
	.cfi_personality 0x9b,DW.ref.__gxx_personality_v0
	.cfi_lsda 0x1b,.LLSDA3261
	endbr64	
# BLOCK 2 seq:0
# PRED: ENTRY (FALLTHRU)
	pushq	%rbp	#
	.cfi_def_cfa_offset 16
	.cfi_offset 6, -16
	movq	%rsp, %rbp	#,
	.cfi_def_cfa_register 6
	pushq	%r12	#
	pushq	%rbx	#
	subq	$16, %rsp	#,
	.cfi_offset 12, -24
	.cfi_offset 3, -32
	movq	%rdi, -24(%rbp)	# this, this
# ../cgicc/HTMLAtomicElement.h:98:     { return new HTMLAtomicElement<Tag>(*this); }
	movl	$64, %edi	#,
.LEHB107:
	call	_Znwm@PLT	#
.LEHE107:
	movq	%rax, %rbx	# tmp85, _3
	movq	-24(%rbp), %rax	# this, tmp86
	movq	%rax, %rsi	# tmp86,
	movq	%rbx, %rdi	# _3,
.LEHB108:
# SUCC: 4 (ABNORMAL,ABNORMAL_CALL,EH) 3 (FALLTHRU)
	call	_ZN5cgicc17HTMLAtomicElementINS_5brTagEEC1ERKS2_	#
.LEHE108:
# BLOCK 3 seq:1
# PRED: 2 (FALLTHRU)
# ../cgicc/HTMLAtomicElement.h:98:     { return new HTMLAtomicElement<Tag>(*this); }
	movq	%rbx, %rax	# _3, <retval>
# SUCC: 5 [always] 
	jmp	.L303	#
# BLOCK 4 seq:2
# PRED: 2 (ABNORMAL,ABNORMAL_CALL,EH)
.L302:
	endbr64	
# ../cgicc/HTMLAtomicElement.h:98:     { return new HTMLAtomicElement<Tag>(*this); }
	movq	%rax, %r12	#, tmp88
	movl	$64, %esi	#,
	movq	%rbx, %rdi	# _3,
	call	_ZdlPvm@PLT	#
	movq	%r12, %rax	# tmp88, D.70296
	movq	%rax, %rdi	# D.70296,
.LEHB109:
# SUCC:
	call	_Unwind_Resume@PLT	#
.LEHE109:
# BLOCK 5 seq:3
# PRED: 3 [always] 
.L303:
# ../cgicc/HTMLAtomicElement.h:98:     { return new HTMLAtomicElement<Tag>(*this); }
	addq	$16, %rsp	#,
	popq	%rbx	#
	popq	%r12	#
	popq	%rbp	#
	.cfi_def_cfa 7, 8
# SUCC: EXIT [always] 
	ret	
	.cfi_endproc
.LFE3261:
	.section	.gcc_except_table
.LLSDA3261:
	.byte	0xff	# @LPStart format (omit)
	.byte	0xff	# @TType format (omit)
	.byte	0x1	# call-site format (uleb128)
	.uleb128 .LLSDACSE3261-.LLSDACSB3261	# Call-site table length
.LLSDACSB3261:
	.uleb128 .LEHB107-.LFB3261	# region 0 start
	.uleb128 .LEHE107-.LEHB107	# length
	.uleb128 0	# landing pad
	.uleb128 0	# action
	.uleb128 .LEHB108-.LFB3261	# region 1 start
	.uleb128 .LEHE108-.LEHB108	# length
	.uleb128 .L302-.LFB3261	# landing pad
	.uleb128 0	# action
	.uleb128 .LEHB109-.LFB3261	# region 2 start
	.uleb128 .LEHE109-.LEHB109	# length
	.uleb128 0	# landing pad
	.uleb128 0	# action
.LLSDACSE3261:
	.section	.text._ZNK5cgicc17HTMLAtomicElementINS_5brTagEE5cloneEv,"axG",@progbits,_ZNK5cgicc17HTMLAtomicElementINS_5brTagEE5cloneEv,comdat
	.size	_ZNK5cgicc17HTMLAtomicElementINS_5brTagEE5cloneEv, .-_ZNK5cgicc17HTMLAtomicElementINS_5brTagEE5cloneEv
	.section	.text._ZNK5cgicc18HTMLBooleanElementINS_5h1TagEE7getNameEv,"axG",@progbits,_ZNK5cgicc18HTMLBooleanElementINS_5h1TagEE7getNameEv,comdat
	.align 2
	.weak	_ZNK5cgicc18HTMLBooleanElementINS_5h1TagEE7getNameEv
	.type	_ZNK5cgicc18HTMLBooleanElementINS_5h1TagEE7getNameEv, @function
_ZNK5cgicc18HTMLBooleanElementINS_5h1TagEE7getNameEv:
.LFB3265:
	.cfi_startproc
	endbr64	
# BLOCK 2 seq:0
# PRED: ENTRY (FALLTHRU)
	pushq	%rbp	#
	.cfi_def_cfa_offset 16
	.cfi_offset 6, -16
	movq	%rsp, %rbp	#,
	.cfi_def_cfa_register 6
	subq	$16, %rsp	#,
	movq	%rdi, -8(%rbp)	# this, this
# ../cgicc/HTMLBooleanElement.h:151:     { return Tag::getName(); }
	call	_ZN5cgicc5h1Tag7getNameEv	#
# ../cgicc/HTMLBooleanElement.h:151:     { return Tag::getName(); }
	leave	
	.cfi_def_cfa 7, 8
# SUCC: EXIT [always] 
	ret	
	.cfi_endproc
.LFE3265:
	.size	_ZNK5cgicc18HTMLBooleanElementINS_5h1TagEE7getNameEv, .-_ZNK5cgicc18HTMLBooleanElementINS_5h1TagEE7getNameEv
	.section	.text._ZN5cgicc18HTMLBooleanElementINS_5h1TagEEC2ERKS2_,"axG",@progbits,_ZN5cgicc18HTMLBooleanElementINS_5h1TagEEC5ERKS2_,comdat
	.align 2
	.weak	_ZN5cgicc18HTMLBooleanElementINS_5h1TagEEC2ERKS2_
	.type	_ZN5cgicc18HTMLBooleanElementINS_5h1TagEEC2ERKS2_, @function
_ZN5cgicc18HTMLBooleanElementINS_5h1TagEEC2ERKS2_:
.LFB3268:
	.cfi_startproc
	endbr64	
# BLOCK 2 seq:0
# PRED: ENTRY (FALLTHRU)
	pushq	%rbp	#
	.cfi_def_cfa_offset 16
	.cfi_offset 6, -16
	movq	%rsp, %rbp	#,
	.cfi_def_cfa_register 6
	subq	$16, %rsp	#,
	movq	%rdi, -8(%rbp)	# this, this
	movq	%rsi, -16(%rbp)	# D.61858, D.61858
# ../cgicc/HTMLBooleanElement.h:62:   class HTMLBooleanElement : public HTMLElement 
	movq	-8(%rbp), %rax	# this, _1
	movq	-16(%rbp), %rdx	# D.61858, _2
	movq	%rdx, %rsi	# _2,
	movq	%rax, %rdi	# _1,
	call	_ZN5cgicc11HTMLElementC2ERKS0_@PLT	#
	leaq	16+_ZTVN5cgicc18HTMLBooleanElementINS_5h1TagEEE(%rip), %rdx	#, _3
	movq	-8(%rbp), %rax	# this, tmp86
	movq	%rdx, (%rax)	# _3, this_6(D)->D.61845.D.60301._vptr.MStreamable
	nop	
	leave	
	.cfi_def_cfa 7, 8
# SUCC: EXIT [always] 
	ret	
	.cfi_endproc
.LFE3268:
	.size	_ZN5cgicc18HTMLBooleanElementINS_5h1TagEEC2ERKS2_, .-_ZN5cgicc18HTMLBooleanElementINS_5h1TagEEC2ERKS2_
	.weak	_ZN5cgicc18HTMLBooleanElementINS_5h1TagEEC1ERKS2_
	.set	_ZN5cgicc18HTMLBooleanElementINS_5h1TagEEC1ERKS2_,_ZN5cgicc18HTMLBooleanElementINS_5h1TagEEC2ERKS2_
	.section	.text._ZNK5cgicc18HTMLBooleanElementINS_5h1TagEE5cloneEv,"axG",@progbits,_ZNK5cgicc18HTMLBooleanElementINS_5h1TagEE5cloneEv,comdat
	.align 2
	.weak	_ZNK5cgicc18HTMLBooleanElementINS_5h1TagEE5cloneEv
	.type	_ZNK5cgicc18HTMLBooleanElementINS_5h1TagEE5cloneEv, @function
_ZNK5cgicc18HTMLBooleanElementINS_5h1TagEE5cloneEv:
.LFB3266:
	.cfi_startproc
	.cfi_personality 0x9b,DW.ref.__gxx_personality_v0
	.cfi_lsda 0x1b,.LLSDA3266
	endbr64	
# BLOCK 2 seq:0
# PRED: ENTRY (FALLTHRU)
	pushq	%rbp	#
	.cfi_def_cfa_offset 16
	.cfi_offset 6, -16
	movq	%rsp, %rbp	#,
	.cfi_def_cfa_register 6
	pushq	%r12	#
	pushq	%rbx	#
	subq	$16, %rsp	#,
	.cfi_offset 12, -24
	.cfi_offset 3, -32
	movq	%rdi, -24(%rbp)	# this, this
# ../cgicc/HTMLBooleanElement.h:141:     { return new HTMLBooleanElement<Tag>(*this); }
	movl	$64, %edi	#,
.LEHB110:
	call	_Znwm@PLT	#
.LEHE110:
	movq	%rax, %rbx	# tmp85, _3
	movq	-24(%rbp), %rax	# this, tmp86
	movq	%rax, %rsi	# tmp86,
	movq	%rbx, %rdi	# _3,
.LEHB111:
# SUCC: 4 (ABNORMAL,ABNORMAL_CALL,EH) 3 (FALLTHRU)
	call	_ZN5cgicc18HTMLBooleanElementINS_5h1TagEEC1ERKS2_	#
.LEHE111:
# BLOCK 3 seq:1
# PRED: 2 (FALLTHRU)
# ../cgicc/HTMLBooleanElement.h:141:     { return new HTMLBooleanElement<Tag>(*this); }
	movq	%rbx, %rax	# _3, <retval>
# SUCC: 5 [always] 
	jmp	.L311	#
# BLOCK 4 seq:2
# PRED: 2 (ABNORMAL,ABNORMAL_CALL,EH)
.L310:
	endbr64	
# ../cgicc/HTMLBooleanElement.h:141:     { return new HTMLBooleanElement<Tag>(*this); }
	movq	%rax, %r12	#, tmp88
	movl	$64, %esi	#,
	movq	%rbx, %rdi	# _3,
	call	_ZdlPvm@PLT	#
	movq	%r12, %rax	# tmp88, D.70297
	movq	%rax, %rdi	# D.70297,
.LEHB112:
# SUCC:
	call	_Unwind_Resume@PLT	#
.LEHE112:
# BLOCK 5 seq:3
# PRED: 3 [always] 
.L311:
# ../cgicc/HTMLBooleanElement.h:141:     { return new HTMLBooleanElement<Tag>(*this); }
	addq	$16, %rsp	#,
	popq	%rbx	#
	popq	%r12	#
	popq	%rbp	#
	.cfi_def_cfa 7, 8
# SUCC: EXIT [always] 
	ret	
	.cfi_endproc
.LFE3266:
	.section	.gcc_except_table
.LLSDA3266:
	.byte	0xff	# @LPStart format (omit)
	.byte	0xff	# @TType format (omit)
	.byte	0x1	# call-site format (uleb128)
	.uleb128 .LLSDACSE3266-.LLSDACSB3266	# Call-site table length
.LLSDACSB3266:
	.uleb128 .LEHB110-.LFB3266	# region 0 start
	.uleb128 .LEHE110-.LEHB110	# length
	.uleb128 0	# landing pad
	.uleb128 0	# action
	.uleb128 .LEHB111-.LFB3266	# region 1 start
	.uleb128 .LEHE111-.LEHB111	# length
	.uleb128 .L310-.LFB3266	# landing pad
	.uleb128 0	# action
	.uleb128 .LEHB112-.LFB3266	# region 2 start
	.uleb128 .LEHE112-.LEHB112	# length
	.uleb128 0	# landing pad
	.uleb128 0	# action
.LLSDACSE3266:
	.section	.text._ZNK5cgicc18HTMLBooleanElementINS_5h1TagEE5cloneEv,"axG",@progbits,_ZNK5cgicc18HTMLBooleanElementINS_5h1TagEE5cloneEv,comdat
	.size	_ZNK5cgicc18HTMLBooleanElementINS_5h1TagEE5cloneEv, .-_ZNK5cgicc18HTMLBooleanElementINS_5h1TagEE5cloneEv
	.section	.text._ZNK5cgicc18HTMLBooleanElementINS_5h1TagEE9swapStateEv,"axG",@progbits,_ZNK5cgicc18HTMLBooleanElementINS_5h1TagEE9swapStateEv,comdat
	.align 2
	.weak	_ZNK5cgicc18HTMLBooleanElementINS_5h1TagEE9swapStateEv
	.type	_ZNK5cgicc18HTMLBooleanElementINS_5h1TagEE9swapStateEv, @function
_ZNK5cgicc18HTMLBooleanElementINS_5h1TagEE9swapStateEv:
.LFB3270:
	.cfi_startproc
	endbr64	
# BLOCK 2 seq:0
# PRED: ENTRY (FALLTHRU)
	pushq	%rbp	#
	.cfi_def_cfa_offset 16
	.cfi_offset 6, -16
	movq	%rsp, %rbp	#,
	.cfi_def_cfa_register 6
	movq	%rdi, -8(%rbp)	# this, this
# ../cgicc/HTMLBooleanElement.h:165:     { sState = ! sState; }
	movzbl	_ZN5cgicc18HTMLBooleanElementINS_5h1TagEE6sStateE(%rip), %eax	# sState, sState.2_1
	xorl	$1, %eax	#, _2
# ../cgicc/HTMLBooleanElement.h:165:     { sState = ! sState; }
	movb	%al, _ZN5cgicc18HTMLBooleanElementINS_5h1TagEE6sStateE(%rip)	# _2, sState
# ../cgicc/HTMLBooleanElement.h:165:     { sState = ! sState; }
	nop	
	popq	%rbp	#
	.cfi_def_cfa 7, 8
# SUCC: EXIT [always] 
	ret	
	.cfi_endproc
.LFE3270:
	.size	_ZNK5cgicc18HTMLBooleanElementINS_5h1TagEE9swapStateEv, .-_ZNK5cgicc18HTMLBooleanElementINS_5h1TagEE9swapStateEv
	.section	.text._ZNK5cgicc18HTMLBooleanElementINS_5h1TagEE8getStateEv,"axG",@progbits,_ZNK5cgicc18HTMLBooleanElementINS_5h1TagEE8getStateEv,comdat
	.align 2
	.weak	_ZNK5cgicc18HTMLBooleanElementINS_5h1TagEE8getStateEv
	.type	_ZNK5cgicc18HTMLBooleanElementINS_5h1TagEE8getStateEv, @function
_ZNK5cgicc18HTMLBooleanElementINS_5h1TagEE8getStateEv:
.LFB3271:
	.cfi_startproc
	endbr64	
# BLOCK 2 seq:0
# PRED: ENTRY (FALLTHRU)
	pushq	%rbp	#
	.cfi_def_cfa_offset 16
	.cfi_offset 6, -16
	movq	%rsp, %rbp	#,
	.cfi_def_cfa_register 6
	movq	%rdi, -8(%rbp)	# this, this
# ../cgicc/HTMLBooleanElement.h:173:     { return sState; }
	movzbl	_ZN5cgicc18HTMLBooleanElementINS_5h1TagEE6sStateE(%rip), %eax	# sState, _2
# ../cgicc/HTMLBooleanElement.h:173:     { return sState; }
	popq	%rbp	#
	.cfi_def_cfa 7, 8
# SUCC: EXIT [always] 
	ret	
	.cfi_endproc
.LFE3271:
	.size	_ZNK5cgicc18HTMLBooleanElementINS_5h1TagEE8getStateEv, .-_ZNK5cgicc18HTMLBooleanElementINS_5h1TagEE8getStateEv
	.section	.text._ZNK5cgicc18HTMLBooleanElementINS_7bodyTagEE7getNameEv,"axG",@progbits,_ZNK5cgicc18HTMLBooleanElementINS_7bodyTagEE7getNameEv,comdat
	.align 2
	.weak	_ZNK5cgicc18HTMLBooleanElementINS_7bodyTagEE7getNameEv
	.type	_ZNK5cgicc18HTMLBooleanElementINS_7bodyTagEE7getNameEv, @function
_ZNK5cgicc18HTMLBooleanElementINS_7bodyTagEE7getNameEv:
.LFB3272:
	.cfi_startproc
	endbr64	
# BLOCK 2 seq:0
# PRED: ENTRY (FALLTHRU)
	pushq	%rbp	#
	.cfi_def_cfa_offset 16
	.cfi_offset 6, -16
	movq	%rsp, %rbp	#,
	.cfi_def_cfa_register 6
	subq	$16, %rsp	#,
	movq	%rdi, -8(%rbp)	# this, this
# ../cgicc/HTMLBooleanElement.h:151:     { return Tag::getName(); }
	call	_ZN5cgicc7bodyTag7getNameEv	#
# ../cgicc/HTMLBooleanElement.h:151:     { return Tag::getName(); }
	leave	
	.cfi_def_cfa 7, 8
# SUCC: EXIT [always] 
	ret	
	.cfi_endproc
.LFE3272:
	.size	_ZNK5cgicc18HTMLBooleanElementINS_7bodyTagEE7getNameEv, .-_ZNK5cgicc18HTMLBooleanElementINS_7bodyTagEE7getNameEv
	.section	.text._ZN5cgicc18HTMLBooleanElementINS_7bodyTagEEC2ERKS2_,"axG",@progbits,_ZN5cgicc18HTMLBooleanElementINS_7bodyTagEEC5ERKS2_,comdat
	.align 2
	.weak	_ZN5cgicc18HTMLBooleanElementINS_7bodyTagEEC2ERKS2_
	.type	_ZN5cgicc18HTMLBooleanElementINS_7bodyTagEEC2ERKS2_, @function
_ZN5cgicc18HTMLBooleanElementINS_7bodyTagEEC2ERKS2_:
.LFB3275:
	.cfi_startproc
	endbr64	
# BLOCK 2 seq:0
# PRED: ENTRY (FALLTHRU)
	pushq	%rbp	#
	.cfi_def_cfa_offset 16
	.cfi_offset 6, -16
	movq	%rsp, %rbp	#,
	.cfi_def_cfa_register 6
	subq	$16, %rsp	#,
	movq	%rdi, -8(%rbp)	# this, this
	movq	%rsi, -16(%rbp)	# D.61758, D.61758
# ../cgicc/HTMLBooleanElement.h:62:   class HTMLBooleanElement : public HTMLElement 
	movq	-8(%rbp), %rax	# this, _1
	movq	-16(%rbp), %rdx	# D.61758, _2
	movq	%rdx, %rsi	# _2,
	movq	%rax, %rdi	# _1,
	call	_ZN5cgicc11HTMLElementC2ERKS0_@PLT	#
	leaq	16+_ZTVN5cgicc18HTMLBooleanElementINS_7bodyTagEEE(%rip), %rdx	#, _3
	movq	-8(%rbp), %rax	# this, tmp86
	movq	%rdx, (%rax)	# _3, this_6(D)->D.61745.D.60301._vptr.MStreamable
	nop	
	leave	
	.cfi_def_cfa 7, 8
# SUCC: EXIT [always] 
	ret	
	.cfi_endproc
.LFE3275:
	.size	_ZN5cgicc18HTMLBooleanElementINS_7bodyTagEEC2ERKS2_, .-_ZN5cgicc18HTMLBooleanElementINS_7bodyTagEEC2ERKS2_
	.weak	_ZN5cgicc18HTMLBooleanElementINS_7bodyTagEEC1ERKS2_
	.set	_ZN5cgicc18HTMLBooleanElementINS_7bodyTagEEC1ERKS2_,_ZN5cgicc18HTMLBooleanElementINS_7bodyTagEEC2ERKS2_
	.section	.text._ZNK5cgicc18HTMLBooleanElementINS_7bodyTagEE5cloneEv,"axG",@progbits,_ZNK5cgicc18HTMLBooleanElementINS_7bodyTagEE5cloneEv,comdat
	.align 2
	.weak	_ZNK5cgicc18HTMLBooleanElementINS_7bodyTagEE5cloneEv
	.type	_ZNK5cgicc18HTMLBooleanElementINS_7bodyTagEE5cloneEv, @function
_ZNK5cgicc18HTMLBooleanElementINS_7bodyTagEE5cloneEv:
.LFB3273:
	.cfi_startproc
	.cfi_personality 0x9b,DW.ref.__gxx_personality_v0
	.cfi_lsda 0x1b,.LLSDA3273
	endbr64	
# BLOCK 2 seq:0
# PRED: ENTRY (FALLTHRU)
	pushq	%rbp	#
	.cfi_def_cfa_offset 16
	.cfi_offset 6, -16
	movq	%rsp, %rbp	#,
	.cfi_def_cfa_register 6
	pushq	%r12	#
	pushq	%rbx	#
	subq	$16, %rsp	#,
	.cfi_offset 12, -24
	.cfi_offset 3, -32
	movq	%rdi, -24(%rbp)	# this, this
# ../cgicc/HTMLBooleanElement.h:141:     { return new HTMLBooleanElement<Tag>(*this); }
	movl	$64, %edi	#,
.LEHB113:
	call	_Znwm@PLT	#
.LEHE113:
	movq	%rax, %rbx	# tmp85, _3
	movq	-24(%rbp), %rax	# this, tmp86
	movq	%rax, %rsi	# tmp86,
	movq	%rbx, %rdi	# _3,
.LEHB114:
# SUCC: 4 (ABNORMAL,ABNORMAL_CALL,EH) 3 (FALLTHRU)
	call	_ZN5cgicc18HTMLBooleanElementINS_7bodyTagEEC1ERKS2_	#
.LEHE114:
# BLOCK 3 seq:1
# PRED: 2 (FALLTHRU)
# ../cgicc/HTMLBooleanElement.h:141:     { return new HTMLBooleanElement<Tag>(*this); }
	movq	%rbx, %rax	# _3, <retval>
# SUCC: 5 [always] 
	jmp	.L322	#
# BLOCK 4 seq:2
# PRED: 2 (ABNORMAL,ABNORMAL_CALL,EH)
.L321:
	endbr64	
# ../cgicc/HTMLBooleanElement.h:141:     { return new HTMLBooleanElement<Tag>(*this); }
	movq	%rax, %r12	#, tmp88
	movl	$64, %esi	#,
	movq	%rbx, %rdi	# _3,
	call	_ZdlPvm@PLT	#
	movq	%r12, %rax	# tmp88, D.70298
	movq	%rax, %rdi	# D.70298,
.LEHB115:
# SUCC:
	call	_Unwind_Resume@PLT	#
.LEHE115:
# BLOCK 5 seq:3
# PRED: 3 [always] 
.L322:
# ../cgicc/HTMLBooleanElement.h:141:     { return new HTMLBooleanElement<Tag>(*this); }
	addq	$16, %rsp	#,
	popq	%rbx	#
	popq	%r12	#
	popq	%rbp	#
	.cfi_def_cfa 7, 8
# SUCC: EXIT [always] 
	ret	
	.cfi_endproc
.LFE3273:
	.section	.gcc_except_table
.LLSDA3273:
	.byte	0xff	# @LPStart format (omit)
	.byte	0xff	# @TType format (omit)
	.byte	0x1	# call-site format (uleb128)
	.uleb128 .LLSDACSE3273-.LLSDACSB3273	# Call-site table length
.LLSDACSB3273:
	.uleb128 .LEHB113-.LFB3273	# region 0 start
	.uleb128 .LEHE113-.LEHB113	# length
	.uleb128 0	# landing pad
	.uleb128 0	# action
	.uleb128 .LEHB114-.LFB3273	# region 1 start
	.uleb128 .LEHE114-.LEHB114	# length
	.uleb128 .L321-.LFB3273	# landing pad
	.uleb128 0	# action
	.uleb128 .LEHB115-.LFB3273	# region 2 start
	.uleb128 .LEHE115-.LEHB115	# length
	.uleb128 0	# landing pad
	.uleb128 0	# action
.LLSDACSE3273:
	.section	.text._ZNK5cgicc18HTMLBooleanElementINS_7bodyTagEE5cloneEv,"axG",@progbits,_ZNK5cgicc18HTMLBooleanElementINS_7bodyTagEE5cloneEv,comdat
	.size	_ZNK5cgicc18HTMLBooleanElementINS_7bodyTagEE5cloneEv, .-_ZNK5cgicc18HTMLBooleanElementINS_7bodyTagEE5cloneEv
	.section	.text._ZNK5cgicc18HTMLBooleanElementINS_7bodyTagEE9swapStateEv,"axG",@progbits,_ZNK5cgicc18HTMLBooleanElementINS_7bodyTagEE9swapStateEv,comdat
	.align 2
	.weak	_ZNK5cgicc18HTMLBooleanElementINS_7bodyTagEE9swapStateEv
	.type	_ZNK5cgicc18HTMLBooleanElementINS_7bodyTagEE9swapStateEv, @function
_ZNK5cgicc18HTMLBooleanElementINS_7bodyTagEE9swapStateEv:
.LFB3277:
	.cfi_startproc
	endbr64	
# BLOCK 2 seq:0
# PRED: ENTRY (FALLTHRU)
	pushq	%rbp	#
	.cfi_def_cfa_offset 16
	.cfi_offset 6, -16
	movq	%rsp, %rbp	#,
	.cfi_def_cfa_register 6
	movq	%rdi, -8(%rbp)	# this, this
# ../cgicc/HTMLBooleanElement.h:165:     { sState = ! sState; }
	movzbl	_ZN5cgicc18HTMLBooleanElementINS_7bodyTagEE6sStateE(%rip), %eax	# sState, sState.13_1
	xorl	$1, %eax	#, _2
# ../cgicc/HTMLBooleanElement.h:165:     { sState = ! sState; }
	movb	%al, _ZN5cgicc18HTMLBooleanElementINS_7bodyTagEE6sStateE(%rip)	# _2, sState
# ../cgicc/HTMLBooleanElement.h:165:     { sState = ! sState; }
	nop	
	popq	%rbp	#
	.cfi_def_cfa 7, 8
# SUCC: EXIT [always] 
	ret	
	.cfi_endproc
.LFE3277:
	.size	_ZNK5cgicc18HTMLBooleanElementINS_7bodyTagEE9swapStateEv, .-_ZNK5cgicc18HTMLBooleanElementINS_7bodyTagEE9swapStateEv
	.section	.text._ZNK5cgicc18HTMLBooleanElementINS_7bodyTagEE8getStateEv,"axG",@progbits,_ZNK5cgicc18HTMLBooleanElementINS_7bodyTagEE8getStateEv,comdat
	.align 2
	.weak	_ZNK5cgicc18HTMLBooleanElementINS_7bodyTagEE8getStateEv
	.type	_ZNK5cgicc18HTMLBooleanElementINS_7bodyTagEE8getStateEv, @function
_ZNK5cgicc18HTMLBooleanElementINS_7bodyTagEE8getStateEv:
.LFB3278:
	.cfi_startproc
	endbr64	
# BLOCK 2 seq:0
# PRED: ENTRY (FALLTHRU)
	pushq	%rbp	#
	.cfi_def_cfa_offset 16
	.cfi_offset 6, -16
	movq	%rsp, %rbp	#,
	.cfi_def_cfa_register 6
	movq	%rdi, -8(%rbp)	# this, this
# ../cgicc/HTMLBooleanElement.h:173:     { return sState; }
	movzbl	_ZN5cgicc18HTMLBooleanElementINS_7bodyTagEE6sStateE(%rip), %eax	# sState, _2
# ../cgicc/HTMLBooleanElement.h:173:     { return sState; }
	popq	%rbp	#
	.cfi_def_cfa 7, 8
# SUCC: EXIT [always] 
	ret	
	.cfi_endproc
.LFE3278:
	.size	_ZNK5cgicc18HTMLBooleanElementINS_7bodyTagEE8getStateEv, .-_ZNK5cgicc18HTMLBooleanElementINS_7bodyTagEE8getStateEv
	.section	.text._ZNK5cgicc18HTMLBooleanElementINS_8titleTagEE7getNameEv,"axG",@progbits,_ZNK5cgicc18HTMLBooleanElementINS_8titleTagEE7getNameEv,comdat
	.align 2
	.weak	_ZNK5cgicc18HTMLBooleanElementINS_8titleTagEE7getNameEv
	.type	_ZNK5cgicc18HTMLBooleanElementINS_8titleTagEE7getNameEv, @function
_ZNK5cgicc18HTMLBooleanElementINS_8titleTagEE7getNameEv:
.LFB3279:
	.cfi_startproc
	endbr64	
# BLOCK 2 seq:0
# PRED: ENTRY (FALLTHRU)
	pushq	%rbp	#
	.cfi_def_cfa_offset 16
	.cfi_offset 6, -16
	movq	%rsp, %rbp	#,
	.cfi_def_cfa_register 6
	subq	$16, %rsp	#,
	movq	%rdi, -8(%rbp)	# this, this
# ../cgicc/HTMLBooleanElement.h:151:     { return Tag::getName(); }
	call	_ZN5cgicc8titleTag7getNameEv	#
# ../cgicc/HTMLBooleanElement.h:151:     { return Tag::getName(); }
	leave	
	.cfi_def_cfa 7, 8
# SUCC: EXIT [always] 
	ret	
	.cfi_endproc
.LFE3279:
	.size	_ZNK5cgicc18HTMLBooleanElementINS_8titleTagEE7getNameEv, .-_ZNK5cgicc18HTMLBooleanElementINS_8titleTagEE7getNameEv
	.section	.text._ZN5cgicc18HTMLBooleanElementINS_8titleTagEEC2ERKS2_,"axG",@progbits,_ZN5cgicc18HTMLBooleanElementINS_8titleTagEEC5ERKS2_,comdat
	.align 2
	.weak	_ZN5cgicc18HTMLBooleanElementINS_8titleTagEEC2ERKS2_
	.type	_ZN5cgicc18HTMLBooleanElementINS_8titleTagEEC2ERKS2_, @function
_ZN5cgicc18HTMLBooleanElementINS_8titleTagEEC2ERKS2_:
.LFB3282:
	.cfi_startproc
	endbr64	
# BLOCK 2 seq:0
# PRED: ENTRY (FALLTHRU)
	pushq	%rbp	#
	.cfi_def_cfa_offset 16
	.cfi_offset 6, -16
	movq	%rsp, %rbp	#,
	.cfi_def_cfa_register 6
	subq	$16, %rsp	#,
	movq	%rdi, -8(%rbp)	# this, this
	movq	%rsi, -16(%rbp)	# D.61656, D.61656
# ../cgicc/HTMLBooleanElement.h:62:   class HTMLBooleanElement : public HTMLElement 
	movq	-8(%rbp), %rax	# this, _1
	movq	-16(%rbp), %rdx	# D.61656, _2
	movq	%rdx, %rsi	# _2,
	movq	%rax, %rdi	# _1,
	call	_ZN5cgicc11HTMLElementC2ERKS0_@PLT	#
	leaq	16+_ZTVN5cgicc18HTMLBooleanElementINS_8titleTagEEE(%rip), %rdx	#, _3
	movq	-8(%rbp), %rax	# this, tmp86
	movq	%rdx, (%rax)	# _3, this_6(D)->D.61643.D.60301._vptr.MStreamable
	nop	
	leave	
	.cfi_def_cfa 7, 8
# SUCC: EXIT [always] 
	ret	
	.cfi_endproc
.LFE3282:
	.size	_ZN5cgicc18HTMLBooleanElementINS_8titleTagEEC2ERKS2_, .-_ZN5cgicc18HTMLBooleanElementINS_8titleTagEEC2ERKS2_
	.weak	_ZN5cgicc18HTMLBooleanElementINS_8titleTagEEC1ERKS2_
	.set	_ZN5cgicc18HTMLBooleanElementINS_8titleTagEEC1ERKS2_,_ZN5cgicc18HTMLBooleanElementINS_8titleTagEEC2ERKS2_
	.section	.text._ZNK5cgicc18HTMLBooleanElementINS_8titleTagEE5cloneEv,"axG",@progbits,_ZNK5cgicc18HTMLBooleanElementINS_8titleTagEE5cloneEv,comdat
	.align 2
	.weak	_ZNK5cgicc18HTMLBooleanElementINS_8titleTagEE5cloneEv
	.type	_ZNK5cgicc18HTMLBooleanElementINS_8titleTagEE5cloneEv, @function
_ZNK5cgicc18HTMLBooleanElementINS_8titleTagEE5cloneEv:
.LFB3280:
	.cfi_startproc
	.cfi_personality 0x9b,DW.ref.__gxx_personality_v0
	.cfi_lsda 0x1b,.LLSDA3280
	endbr64	
# BLOCK 2 seq:0
# PRED: ENTRY (FALLTHRU)
	pushq	%rbp	#
	.cfi_def_cfa_offset 16
	.cfi_offset 6, -16
	movq	%rsp, %rbp	#,
	.cfi_def_cfa_register 6
	pushq	%r12	#
	pushq	%rbx	#
	subq	$16, %rsp	#,
	.cfi_offset 12, -24
	.cfi_offset 3, -32
	movq	%rdi, -24(%rbp)	# this, this
# ../cgicc/HTMLBooleanElement.h:141:     { return new HTMLBooleanElement<Tag>(*this); }
	movl	$64, %edi	#,
.LEHB116:
	call	_Znwm@PLT	#
.LEHE116:
	movq	%rax, %rbx	# tmp85, _3
	movq	-24(%rbp), %rax	# this, tmp86
	movq	%rax, %rsi	# tmp86,
	movq	%rbx, %rdi	# _3,
.LEHB117:
# SUCC: 4 (ABNORMAL,ABNORMAL_CALL,EH) 3 (FALLTHRU)
	call	_ZN5cgicc18HTMLBooleanElementINS_8titleTagEEC1ERKS2_	#
.LEHE117:
# BLOCK 3 seq:1
# PRED: 2 (FALLTHRU)
# ../cgicc/HTMLBooleanElement.h:141:     { return new HTMLBooleanElement<Tag>(*this); }
	movq	%rbx, %rax	# _3, <retval>
# SUCC: 5 [always] 
	jmp	.L333	#
# BLOCK 4 seq:2
# PRED: 2 (ABNORMAL,ABNORMAL_CALL,EH)
.L332:
	endbr64	
# ../cgicc/HTMLBooleanElement.h:141:     { return new HTMLBooleanElement<Tag>(*this); }
	movq	%rax, %r12	#, tmp88
	movl	$64, %esi	#,
	movq	%rbx, %rdi	# _3,
	call	_ZdlPvm@PLT	#
	movq	%r12, %rax	# tmp88, D.70299
	movq	%rax, %rdi	# D.70299,
.LEHB118:
# SUCC:
	call	_Unwind_Resume@PLT	#
.LEHE118:
# BLOCK 5 seq:3
# PRED: 3 [always] 
.L333:
# ../cgicc/HTMLBooleanElement.h:141:     { return new HTMLBooleanElement<Tag>(*this); }
	addq	$16, %rsp	#,
	popq	%rbx	#
	popq	%r12	#
	popq	%rbp	#
	.cfi_def_cfa 7, 8
# SUCC: EXIT [always] 
	ret	
	.cfi_endproc
.LFE3280:
	.section	.gcc_except_table
.LLSDA3280:
	.byte	0xff	# @LPStart format (omit)
	.byte	0xff	# @TType format (omit)
	.byte	0x1	# call-site format (uleb128)
	.uleb128 .LLSDACSE3280-.LLSDACSB3280	# Call-site table length
.LLSDACSB3280:
	.uleb128 .LEHB116-.LFB3280	# region 0 start
	.uleb128 .LEHE116-.LEHB116	# length
	.uleb128 0	# landing pad
	.uleb128 0	# action
	.uleb128 .LEHB117-.LFB3280	# region 1 start
	.uleb128 .LEHE117-.LEHB117	# length
	.uleb128 .L332-.LFB3280	# landing pad
	.uleb128 0	# action
	.uleb128 .LEHB118-.LFB3280	# region 2 start
	.uleb128 .LEHE118-.LEHB118	# length
	.uleb128 0	# landing pad
	.uleb128 0	# action
.LLSDACSE3280:
	.section	.text._ZNK5cgicc18HTMLBooleanElementINS_8titleTagEE5cloneEv,"axG",@progbits,_ZNK5cgicc18HTMLBooleanElementINS_8titleTagEE5cloneEv,comdat
	.size	_ZNK5cgicc18HTMLBooleanElementINS_8titleTagEE5cloneEv, .-_ZNK5cgicc18HTMLBooleanElementINS_8titleTagEE5cloneEv
	.section	.text._ZNK5cgicc18HTMLBooleanElementINS_8titleTagEE9swapStateEv,"axG",@progbits,_ZNK5cgicc18HTMLBooleanElementINS_8titleTagEE9swapStateEv,comdat
	.align 2
	.weak	_ZNK5cgicc18HTMLBooleanElementINS_8titleTagEE9swapStateEv
	.type	_ZNK5cgicc18HTMLBooleanElementINS_8titleTagEE9swapStateEv, @function
_ZNK5cgicc18HTMLBooleanElementINS_8titleTagEE9swapStateEv:
.LFB3284:
	.cfi_startproc
	endbr64	
# BLOCK 2 seq:0
# PRED: ENTRY (FALLTHRU)
	pushq	%rbp	#
	.cfi_def_cfa_offset 16
	.cfi_offset 6, -16
	movq	%rsp, %rbp	#,
	.cfi_def_cfa_register 6
	movq	%rdi, -8(%rbp)	# this, this
# ../cgicc/HTMLBooleanElement.h:165:     { sState = ! sState; }
	movzbl	_ZN5cgicc18HTMLBooleanElementINS_8titleTagEE6sStateE(%rip), %eax	# sState, sState.0_1
	xorl	$1, %eax	#, _2
# ../cgicc/HTMLBooleanElement.h:165:     { sState = ! sState; }
	movb	%al, _ZN5cgicc18HTMLBooleanElementINS_8titleTagEE6sStateE(%rip)	# _2, sState
# ../cgicc/HTMLBooleanElement.h:165:     { sState = ! sState; }
	nop	
	popq	%rbp	#
	.cfi_def_cfa 7, 8
# SUCC: EXIT [always] 
	ret	
	.cfi_endproc
.LFE3284:
	.size	_ZNK5cgicc18HTMLBooleanElementINS_8titleTagEE9swapStateEv, .-_ZNK5cgicc18HTMLBooleanElementINS_8titleTagEE9swapStateEv
	.section	.text._ZNK5cgicc18HTMLBooleanElementINS_8titleTagEE8getStateEv,"axG",@progbits,_ZNK5cgicc18HTMLBooleanElementINS_8titleTagEE8getStateEv,comdat
	.align 2
	.weak	_ZNK5cgicc18HTMLBooleanElementINS_8titleTagEE8getStateEv
	.type	_ZNK5cgicc18HTMLBooleanElementINS_8titleTagEE8getStateEv, @function
_ZNK5cgicc18HTMLBooleanElementINS_8titleTagEE8getStateEv:
.LFB3285:
	.cfi_startproc
	endbr64	
# BLOCK 2 seq:0
# PRED: ENTRY (FALLTHRU)
	pushq	%rbp	#
	.cfi_def_cfa_offset 16
	.cfi_offset 6, -16
	movq	%rsp, %rbp	#,
	.cfi_def_cfa_register 6
	movq	%rdi, -8(%rbp)	# this, this
# ../cgicc/HTMLBooleanElement.h:173:     { return sState; }
	movzbl	_ZN5cgicc18HTMLBooleanElementINS_8titleTagEE6sStateE(%rip), %eax	# sState, _2
# ../cgicc/HTMLBooleanElement.h:173:     { return sState; }
	popq	%rbp	#
	.cfi_def_cfa 7, 8
# SUCC: EXIT [always] 
	ret	
	.cfi_endproc
.LFE3285:
	.size	_ZNK5cgicc18HTMLBooleanElementINS_8titleTagEE8getStateEv, .-_ZNK5cgicc18HTMLBooleanElementINS_8titleTagEE8getStateEv
	.section	.text._ZNK5cgicc18HTMLBooleanElementINS_7headTagEE7getNameEv,"axG",@progbits,_ZNK5cgicc18HTMLBooleanElementINS_7headTagEE7getNameEv,comdat
	.align 2
	.weak	_ZNK5cgicc18HTMLBooleanElementINS_7headTagEE7getNameEv
	.type	_ZNK5cgicc18HTMLBooleanElementINS_7headTagEE7getNameEv, @function
_ZNK5cgicc18HTMLBooleanElementINS_7headTagEE7getNameEv:
.LFB3286:
	.cfi_startproc
	endbr64	
# BLOCK 2 seq:0
# PRED: ENTRY (FALLTHRU)
	pushq	%rbp	#
	.cfi_def_cfa_offset 16
	.cfi_offset 6, -16
	movq	%rsp, %rbp	#,
	.cfi_def_cfa_register 6
	subq	$16, %rsp	#,
	movq	%rdi, -8(%rbp)	# this, this
# ../cgicc/HTMLBooleanElement.h:151:     { return Tag::getName(); }
	call	_ZN5cgicc7headTag7getNameEv	#
# ../cgicc/HTMLBooleanElement.h:151:     { return Tag::getName(); }
	leave	
	.cfi_def_cfa 7, 8
# SUCC: EXIT [always] 
	ret	
	.cfi_endproc
.LFE3286:
	.size	_ZNK5cgicc18HTMLBooleanElementINS_7headTagEE7getNameEv, .-_ZNK5cgicc18HTMLBooleanElementINS_7headTagEE7getNameEv
	.section	.text._ZN5cgicc18HTMLBooleanElementINS_7headTagEEC2ERKS2_,"axG",@progbits,_ZN5cgicc18HTMLBooleanElementINS_7headTagEEC5ERKS2_,comdat
	.align 2
	.weak	_ZN5cgicc18HTMLBooleanElementINS_7headTagEEC2ERKS2_
	.type	_ZN5cgicc18HTMLBooleanElementINS_7headTagEEC2ERKS2_, @function
_ZN5cgicc18HTMLBooleanElementINS_7headTagEEC2ERKS2_:
.LFB3289:
	.cfi_startproc
	endbr64	
# BLOCK 2 seq:0
# PRED: ENTRY (FALLTHRU)
	pushq	%rbp	#
	.cfi_def_cfa_offset 16
	.cfi_offset 6, -16
	movq	%rsp, %rbp	#,
	.cfi_def_cfa_register 6
	subq	$16, %rsp	#,
	movq	%rdi, -8(%rbp)	# this, this
	movq	%rsi, -16(%rbp)	# D.61556, D.61556
# ../cgicc/HTMLBooleanElement.h:62:   class HTMLBooleanElement : public HTMLElement 
	movq	-8(%rbp), %rax	# this, _1
	movq	-16(%rbp), %rdx	# D.61556, _2
	movq	%rdx, %rsi	# _2,
	movq	%rax, %rdi	# _1,
	call	_ZN5cgicc11HTMLElementC2ERKS0_@PLT	#
	leaq	16+_ZTVN5cgicc18HTMLBooleanElementINS_7headTagEEE(%rip), %rdx	#, _3
	movq	-8(%rbp), %rax	# this, tmp86
	movq	%rdx, (%rax)	# _3, this_6(D)->D.61543.D.60301._vptr.MStreamable
	nop	
	leave	
	.cfi_def_cfa 7, 8
# SUCC: EXIT [always] 
	ret	
	.cfi_endproc
.LFE3289:
	.size	_ZN5cgicc18HTMLBooleanElementINS_7headTagEEC2ERKS2_, .-_ZN5cgicc18HTMLBooleanElementINS_7headTagEEC2ERKS2_
	.weak	_ZN5cgicc18HTMLBooleanElementINS_7headTagEEC1ERKS2_
	.set	_ZN5cgicc18HTMLBooleanElementINS_7headTagEEC1ERKS2_,_ZN5cgicc18HTMLBooleanElementINS_7headTagEEC2ERKS2_
	.section	.text._ZNK5cgicc18HTMLBooleanElementINS_7headTagEE5cloneEv,"axG",@progbits,_ZNK5cgicc18HTMLBooleanElementINS_7headTagEE5cloneEv,comdat
	.align 2
	.weak	_ZNK5cgicc18HTMLBooleanElementINS_7headTagEE5cloneEv
	.type	_ZNK5cgicc18HTMLBooleanElementINS_7headTagEE5cloneEv, @function
_ZNK5cgicc18HTMLBooleanElementINS_7headTagEE5cloneEv:
.LFB3287:
	.cfi_startproc
	.cfi_personality 0x9b,DW.ref.__gxx_personality_v0
	.cfi_lsda 0x1b,.LLSDA3287
	endbr64	
# BLOCK 2 seq:0
# PRED: ENTRY (FALLTHRU)
	pushq	%rbp	#
	.cfi_def_cfa_offset 16
	.cfi_offset 6, -16
	movq	%rsp, %rbp	#,
	.cfi_def_cfa_register 6
	pushq	%r12	#
	pushq	%rbx	#
	subq	$16, %rsp	#,
	.cfi_offset 12, -24
	.cfi_offset 3, -32
	movq	%rdi, -24(%rbp)	# this, this
# ../cgicc/HTMLBooleanElement.h:141:     { return new HTMLBooleanElement<Tag>(*this); }
	movl	$64, %edi	#,
.LEHB119:
	call	_Znwm@PLT	#
.LEHE119:
	movq	%rax, %rbx	# tmp85, _3
	movq	-24(%rbp), %rax	# this, tmp86
	movq	%rax, %rsi	# tmp86,
	movq	%rbx, %rdi	# _3,
.LEHB120:
# SUCC: 4 (ABNORMAL,ABNORMAL_CALL,EH) 3 (FALLTHRU)
	call	_ZN5cgicc18HTMLBooleanElementINS_7headTagEEC1ERKS2_	#
.LEHE120:
# BLOCK 3 seq:1
# PRED: 2 (FALLTHRU)
# ../cgicc/HTMLBooleanElement.h:141:     { return new HTMLBooleanElement<Tag>(*this); }
	movq	%rbx, %rax	# _3, <retval>
# SUCC: 5 [always] 
	jmp	.L344	#
# BLOCK 4 seq:2
# PRED: 2 (ABNORMAL,ABNORMAL_CALL,EH)
.L343:
	endbr64	
# ../cgicc/HTMLBooleanElement.h:141:     { return new HTMLBooleanElement<Tag>(*this); }
	movq	%rax, %r12	#, tmp88
	movl	$64, %esi	#,
	movq	%rbx, %rdi	# _3,
	call	_ZdlPvm@PLT	#
	movq	%r12, %rax	# tmp88, D.70300
	movq	%rax, %rdi	# D.70300,
.LEHB121:
# SUCC:
	call	_Unwind_Resume@PLT	#
.LEHE121:
# BLOCK 5 seq:3
# PRED: 3 [always] 
.L344:
# ../cgicc/HTMLBooleanElement.h:141:     { return new HTMLBooleanElement<Tag>(*this); }
	addq	$16, %rsp	#,
	popq	%rbx	#
	popq	%r12	#
	popq	%rbp	#
	.cfi_def_cfa 7, 8
# SUCC: EXIT [always] 
	ret	
	.cfi_endproc
.LFE3287:
	.section	.gcc_except_table
.LLSDA3287:
	.byte	0xff	# @LPStart format (omit)
	.byte	0xff	# @TType format (omit)
	.byte	0x1	# call-site format (uleb128)
	.uleb128 .LLSDACSE3287-.LLSDACSB3287	# Call-site table length
.LLSDACSB3287:
	.uleb128 .LEHB119-.LFB3287	# region 0 start
	.uleb128 .LEHE119-.LEHB119	# length
	.uleb128 0	# landing pad
	.uleb128 0	# action
	.uleb128 .LEHB120-.LFB3287	# region 1 start
	.uleb128 .LEHE120-.LEHB120	# length
	.uleb128 .L343-.LFB3287	# landing pad
	.uleb128 0	# action
	.uleb128 .LEHB121-.LFB3287	# region 2 start
	.uleb128 .LEHE121-.LEHB121	# length
	.uleb128 0	# landing pad
	.uleb128 0	# action
.LLSDACSE3287:
	.section	.text._ZNK5cgicc18HTMLBooleanElementINS_7headTagEE5cloneEv,"axG",@progbits,_ZNK5cgicc18HTMLBooleanElementINS_7headTagEE5cloneEv,comdat
	.size	_ZNK5cgicc18HTMLBooleanElementINS_7headTagEE5cloneEv, .-_ZNK5cgicc18HTMLBooleanElementINS_7headTagEE5cloneEv
	.section	.text._ZNK5cgicc18HTMLBooleanElementINS_7headTagEE9swapStateEv,"axG",@progbits,_ZNK5cgicc18HTMLBooleanElementINS_7headTagEE9swapStateEv,comdat
	.align 2
	.weak	_ZNK5cgicc18HTMLBooleanElementINS_7headTagEE9swapStateEv
	.type	_ZNK5cgicc18HTMLBooleanElementINS_7headTagEE9swapStateEv, @function
_ZNK5cgicc18HTMLBooleanElementINS_7headTagEE9swapStateEv:
.LFB3291:
	.cfi_startproc
	endbr64	
# BLOCK 2 seq:0
# PRED: ENTRY (FALLTHRU)
	pushq	%rbp	#
	.cfi_def_cfa_offset 16
	.cfi_offset 6, -16
	movq	%rsp, %rbp	#,
	.cfi_def_cfa_register 6
	movq	%rdi, -8(%rbp)	# this, this
# ../cgicc/HTMLBooleanElement.h:165:     { sState = ! sState; }
	movzbl	_ZN5cgicc18HTMLBooleanElementINS_7headTagEE6sStateE(%rip), %eax	# sState, sState.1_1
	xorl	$1, %eax	#, _2
# ../cgicc/HTMLBooleanElement.h:165:     { sState = ! sState; }
	movb	%al, _ZN5cgicc18HTMLBooleanElementINS_7headTagEE6sStateE(%rip)	# _2, sState
# ../cgicc/HTMLBooleanElement.h:165:     { sState = ! sState; }
	nop	
	popq	%rbp	#
	.cfi_def_cfa 7, 8
# SUCC: EXIT [always] 
	ret	
	.cfi_endproc
.LFE3291:
	.size	_ZNK5cgicc18HTMLBooleanElementINS_7headTagEE9swapStateEv, .-_ZNK5cgicc18HTMLBooleanElementINS_7headTagEE9swapStateEv
	.section	.text._ZNK5cgicc18HTMLBooleanElementINS_7headTagEE8getStateEv,"axG",@progbits,_ZNK5cgicc18HTMLBooleanElementINS_7headTagEE8getStateEv,comdat
	.align 2
	.weak	_ZNK5cgicc18HTMLBooleanElementINS_7headTagEE8getStateEv
	.type	_ZNK5cgicc18HTMLBooleanElementINS_7headTagEE8getStateEv, @function
_ZNK5cgicc18HTMLBooleanElementINS_7headTagEE8getStateEv:
.LFB3292:
	.cfi_startproc
	endbr64	
# BLOCK 2 seq:0
# PRED: ENTRY (FALLTHRU)
	pushq	%rbp	#
	.cfi_def_cfa_offset 16
	.cfi_offset 6, -16
	movq	%rsp, %rbp	#,
	.cfi_def_cfa_register 6
	movq	%rdi, -8(%rbp)	# this, this
# ../cgicc/HTMLBooleanElement.h:173:     { return sState; }
	movzbl	_ZN5cgicc18HTMLBooleanElementINS_7headTagEE6sStateE(%rip), %eax	# sState, _2
# ../cgicc/HTMLBooleanElement.h:173:     { return sState; }
	popq	%rbp	#
	.cfi_def_cfa 7, 8
# SUCC: EXIT [always] 
	ret	
	.cfi_endproc
.LFE3292:
	.size	_ZNK5cgicc18HTMLBooleanElementINS_7headTagEE8getStateEv, .-_ZNK5cgicc18HTMLBooleanElementINS_7headTagEE8getStateEv
	.section	.text._ZNK5cgicc18HTMLBooleanElementINS_7htmlTagEE7getNameEv,"axG",@progbits,_ZNK5cgicc18HTMLBooleanElementINS_7htmlTagEE7getNameEv,comdat
	.align 2
	.weak	_ZNK5cgicc18HTMLBooleanElementINS_7htmlTagEE7getNameEv
	.type	_ZNK5cgicc18HTMLBooleanElementINS_7htmlTagEE7getNameEv, @function
_ZNK5cgicc18HTMLBooleanElementINS_7htmlTagEE7getNameEv:
.LFB3293:
	.cfi_startproc
	endbr64	
# BLOCK 2 seq:0
# PRED: ENTRY (FALLTHRU)
	pushq	%rbp	#
	.cfi_def_cfa_offset 16
	.cfi_offset 6, -16
	movq	%rsp, %rbp	#,
	.cfi_def_cfa_register 6
	subq	$16, %rsp	#,
	movq	%rdi, -8(%rbp)	# this, this
# ../cgicc/HTMLBooleanElement.h:151:     { return Tag::getName(); }
	call	_ZN5cgicc7htmlTag7getNameEv	#
# ../cgicc/HTMLBooleanElement.h:151:     { return Tag::getName(); }
	leave	
	.cfi_def_cfa 7, 8
# SUCC: EXIT [always] 
	ret	
	.cfi_endproc
.LFE3293:
	.size	_ZNK5cgicc18HTMLBooleanElementINS_7htmlTagEE7getNameEv, .-_ZNK5cgicc18HTMLBooleanElementINS_7htmlTagEE7getNameEv
	.section	.text._ZN5cgicc18HTMLBooleanElementINS_7htmlTagEEC2ERKS2_,"axG",@progbits,_ZN5cgicc18HTMLBooleanElementINS_7htmlTagEEC5ERKS2_,comdat
	.align 2
	.weak	_ZN5cgicc18HTMLBooleanElementINS_7htmlTagEEC2ERKS2_
	.type	_ZN5cgicc18HTMLBooleanElementINS_7htmlTagEEC2ERKS2_, @function
_ZN5cgicc18HTMLBooleanElementINS_7htmlTagEEC2ERKS2_:
.LFB3296:
	.cfi_startproc
	endbr64	
# BLOCK 2 seq:0
# PRED: ENTRY (FALLTHRU)
	pushq	%rbp	#
	.cfi_def_cfa_offset 16
	.cfi_offset 6, -16
	movq	%rsp, %rbp	#,
	.cfi_def_cfa_register 6
	subq	$16, %rsp	#,
	movq	%rdi, -8(%rbp)	# this, this
	movq	%rsi, -16(%rbp)	# D.61456, D.61456
# ../cgicc/HTMLBooleanElement.h:62:   class HTMLBooleanElement : public HTMLElement 
	movq	-8(%rbp), %rax	# this, _1
	movq	-16(%rbp), %rdx	# D.61456, _2
	movq	%rdx, %rsi	# _2,
	movq	%rax, %rdi	# _1,
	call	_ZN5cgicc11HTMLElementC2ERKS0_@PLT	#
	leaq	16+_ZTVN5cgicc18HTMLBooleanElementINS_7htmlTagEEE(%rip), %rdx	#, _3
	movq	-8(%rbp), %rax	# this, tmp86
	movq	%rdx, (%rax)	# _3, this_6(D)->D.61443.D.60301._vptr.MStreamable
	nop	
	leave	
	.cfi_def_cfa 7, 8
# SUCC: EXIT [always] 
	ret	
	.cfi_endproc
.LFE3296:
	.size	_ZN5cgicc18HTMLBooleanElementINS_7htmlTagEEC2ERKS2_, .-_ZN5cgicc18HTMLBooleanElementINS_7htmlTagEEC2ERKS2_
	.weak	_ZN5cgicc18HTMLBooleanElementINS_7htmlTagEEC1ERKS2_
	.set	_ZN5cgicc18HTMLBooleanElementINS_7htmlTagEEC1ERKS2_,_ZN5cgicc18HTMLBooleanElementINS_7htmlTagEEC2ERKS2_
	.section	.text._ZNK5cgicc18HTMLBooleanElementINS_7htmlTagEE5cloneEv,"axG",@progbits,_ZNK5cgicc18HTMLBooleanElementINS_7htmlTagEE5cloneEv,comdat
	.align 2
	.weak	_ZNK5cgicc18HTMLBooleanElementINS_7htmlTagEE5cloneEv
	.type	_ZNK5cgicc18HTMLBooleanElementINS_7htmlTagEE5cloneEv, @function
_ZNK5cgicc18HTMLBooleanElementINS_7htmlTagEE5cloneEv:
.LFB3294:
	.cfi_startproc
	.cfi_personality 0x9b,DW.ref.__gxx_personality_v0
	.cfi_lsda 0x1b,.LLSDA3294
	endbr64	
# BLOCK 2 seq:0
# PRED: ENTRY (FALLTHRU)
	pushq	%rbp	#
	.cfi_def_cfa_offset 16
	.cfi_offset 6, -16
	movq	%rsp, %rbp	#,
	.cfi_def_cfa_register 6
	pushq	%r12	#
	pushq	%rbx	#
	subq	$16, %rsp	#,
	.cfi_offset 12, -24
	.cfi_offset 3, -32
	movq	%rdi, -24(%rbp)	# this, this
# ../cgicc/HTMLBooleanElement.h:141:     { return new HTMLBooleanElement<Tag>(*this); }
	movl	$64, %edi	#,
.LEHB122:
	call	_Znwm@PLT	#
.LEHE122:
	movq	%rax, %rbx	# tmp85, _3
	movq	-24(%rbp), %rax	# this, tmp86
	movq	%rax, %rsi	# tmp86,
	movq	%rbx, %rdi	# _3,
.LEHB123:
# SUCC: 4 (ABNORMAL,ABNORMAL_CALL,EH) 3 (FALLTHRU)
	call	_ZN5cgicc18HTMLBooleanElementINS_7htmlTagEEC1ERKS2_	#
.LEHE123:
# BLOCK 3 seq:1
# PRED: 2 (FALLTHRU)
# ../cgicc/HTMLBooleanElement.h:141:     { return new HTMLBooleanElement<Tag>(*this); }
	movq	%rbx, %rax	# _3, <retval>
# SUCC: 5 [always] 
	jmp	.L355	#
# BLOCK 4 seq:2
# PRED: 2 (ABNORMAL,ABNORMAL_CALL,EH)
.L354:
	endbr64	
# ../cgicc/HTMLBooleanElement.h:141:     { return new HTMLBooleanElement<Tag>(*this); }
	movq	%rax, %r12	#, tmp88
	movl	$64, %esi	#,
	movq	%rbx, %rdi	# _3,
	call	_ZdlPvm@PLT	#
	movq	%r12, %rax	# tmp88, D.70301
	movq	%rax, %rdi	# D.70301,
.LEHB124:
# SUCC:
	call	_Unwind_Resume@PLT	#
.LEHE124:
# BLOCK 5 seq:3
# PRED: 3 [always] 
.L355:
# ../cgicc/HTMLBooleanElement.h:141:     { return new HTMLBooleanElement<Tag>(*this); }
	addq	$16, %rsp	#,
	popq	%rbx	#
	popq	%r12	#
	popq	%rbp	#
	.cfi_def_cfa 7, 8
# SUCC: EXIT [always] 
	ret	
	.cfi_endproc
.LFE3294:
	.section	.gcc_except_table
.LLSDA3294:
	.byte	0xff	# @LPStart format (omit)
	.byte	0xff	# @TType format (omit)
	.byte	0x1	# call-site format (uleb128)
	.uleb128 .LLSDACSE3294-.LLSDACSB3294	# Call-site table length
.LLSDACSB3294:
	.uleb128 .LEHB122-.LFB3294	# region 0 start
	.uleb128 .LEHE122-.LEHB122	# length
	.uleb128 0	# landing pad
	.uleb128 0	# action
	.uleb128 .LEHB123-.LFB3294	# region 1 start
	.uleb128 .LEHE123-.LEHB123	# length
	.uleb128 .L354-.LFB3294	# landing pad
	.uleb128 0	# action
	.uleb128 .LEHB124-.LFB3294	# region 2 start
	.uleb128 .LEHE124-.LEHB124	# length
	.uleb128 0	# landing pad
	.uleb128 0	# action
.LLSDACSE3294:
	.section	.text._ZNK5cgicc18HTMLBooleanElementINS_7htmlTagEE5cloneEv,"axG",@progbits,_ZNK5cgicc18HTMLBooleanElementINS_7htmlTagEE5cloneEv,comdat
	.size	_ZNK5cgicc18HTMLBooleanElementINS_7htmlTagEE5cloneEv, .-_ZNK5cgicc18HTMLBooleanElementINS_7htmlTagEE5cloneEv
	.section	.text._ZNK5cgicc18HTMLBooleanElementINS_7htmlTagEE9swapStateEv,"axG",@progbits,_ZNK5cgicc18HTMLBooleanElementINS_7htmlTagEE9swapStateEv,comdat
	.align 2
	.weak	_ZNK5cgicc18HTMLBooleanElementINS_7htmlTagEE9swapStateEv
	.type	_ZNK5cgicc18HTMLBooleanElementINS_7htmlTagEE9swapStateEv, @function
_ZNK5cgicc18HTMLBooleanElementINS_7htmlTagEE9swapStateEv:
.LFB3298:
	.cfi_startproc
	endbr64	
# BLOCK 2 seq:0
# PRED: ENTRY (FALLTHRU)
	pushq	%rbp	#
	.cfi_def_cfa_offset 16
	.cfi_offset 6, -16
	movq	%rsp, %rbp	#,
	.cfi_def_cfa_register 6
	movq	%rdi, -8(%rbp)	# this, this
# ../cgicc/HTMLBooleanElement.h:165:     { sState = ! sState; }
	movzbl	_ZN5cgicc18HTMLBooleanElementINS_7htmlTagEE6sStateE(%rip), %eax	# sState, sState.14_1
	xorl	$1, %eax	#, _2
# ../cgicc/HTMLBooleanElement.h:165:     { sState = ! sState; }
	movb	%al, _ZN5cgicc18HTMLBooleanElementINS_7htmlTagEE6sStateE(%rip)	# _2, sState
# ../cgicc/HTMLBooleanElement.h:165:     { sState = ! sState; }
	nop	
	popq	%rbp	#
	.cfi_def_cfa 7, 8
# SUCC: EXIT [always] 
	ret	
	.cfi_endproc
.LFE3298:
	.size	_ZNK5cgicc18HTMLBooleanElementINS_7htmlTagEE9swapStateEv, .-_ZNK5cgicc18HTMLBooleanElementINS_7htmlTagEE9swapStateEv
	.section	.text._ZNK5cgicc18HTMLBooleanElementINS_7htmlTagEE8getStateEv,"axG",@progbits,_ZNK5cgicc18HTMLBooleanElementINS_7htmlTagEE8getStateEv,comdat
	.align 2
	.weak	_ZNK5cgicc18HTMLBooleanElementINS_7htmlTagEE8getStateEv
	.type	_ZNK5cgicc18HTMLBooleanElementINS_7htmlTagEE8getStateEv, @function
_ZNK5cgicc18HTMLBooleanElementINS_7htmlTagEE8getStateEv:
.LFB3299:
	.cfi_startproc
	endbr64	
# BLOCK 2 seq:0
# PRED: ENTRY (FALLTHRU)
	pushq	%rbp	#
	.cfi_def_cfa_offset 16
	.cfi_offset 6, -16
	movq	%rsp, %rbp	#,
	.cfi_def_cfa_register 6
	movq	%rdi, -8(%rbp)	# this, this
# ../cgicc/HTMLBooleanElement.h:173:     { return sState; }
	movzbl	_ZN5cgicc18HTMLBooleanElementINS_7htmlTagEE6sStateE(%rip), %eax	# sState, _2
# ../cgicc/HTMLBooleanElement.h:173:     { return sState; }
	popq	%rbp	#
	.cfi_def_cfa 7, 8
# SUCC: EXIT [always] 
	ret	
	.cfi_endproc
.LFE3299:
	.size	_ZNK5cgicc18HTMLBooleanElementINS_7htmlTagEE8getStateEv, .-_ZNK5cgicc18HTMLBooleanElementINS_7htmlTagEE8getStateEv
	.text
	.type	_GLOBAL__sub_I__Z4Pingv, @function
_GLOBAL__sub_I__Z4Pingv:
.LFB3300:
	.cfi_startproc
	endbr64	
# BLOCK 2 seq:0
# PRED: ENTRY (FALLTHRU)
	pushq	%rbp	#
	.cfi_def_cfa_offset 16
	.cfi_offset 6, -16
	movq	%rsp, %rbp	#,
	.cfi_def_cfa_register 6
# cgi.cpp:143: }
	movl	$65535, %esi	#,
	movl	$1, %edi	#,
	call	_Z41__static_initialization_and_destruction_0ii	#
	popq	%rbp	#
	.cfi_def_cfa 7, 8
# SUCC: EXIT [always] 
	ret	
	.cfi_endproc
.LFE3300:
	.size	_GLOBAL__sub_I__Z4Pingv, .-_GLOBAL__sub_I__Z4Pingv
	.section	.init_array,"aw"
	.align 8
	.quad	_GLOBAL__sub_I__Z4Pingv
	.hidden	DW.ref._ZTISt11logic_error
	.weak	DW.ref._ZTISt11logic_error
	.section	.data.rel.local.DW.ref._ZTISt11logic_error,"awG",@progbits,DW.ref._ZTISt11logic_error,comdat
	.align 8
	.type	DW.ref._ZTISt11logic_error, @object
	.size	DW.ref._ZTISt11logic_error, 8
DW.ref._ZTISt11logic_error:
	.quad	_ZTISt11logic_error
	.hidden	DW.ref._ZTISt13runtime_error
	.weak	DW.ref._ZTISt13runtime_error
	.section	.data.rel.local.DW.ref._ZTISt13runtime_error,"awG",@progbits,DW.ref._ZTISt13runtime_error,comdat
	.align 8
	.type	DW.ref._ZTISt13runtime_error, @object
	.size	DW.ref._ZTISt13runtime_error, 8
DW.ref._ZTISt13runtime_error:
	.quad	_ZTISt13runtime_error
	.hidden	DW.ref.__gxx_personality_v0
	.weak	DW.ref.__gxx_personality_v0
	.section	.data.rel.local.DW.ref.__gxx_personality_v0,"awG",@progbits,DW.ref.__gxx_personality_v0,comdat
	.align 8
	.type	DW.ref.__gxx_personality_v0, @object
	.size	DW.ref.__gxx_personality_v0, 8
DW.ref.__gxx_personality_v0:
	.quad	__gxx_personality_v0
	.hidden	__dso_handle
	.ident	"GCC: (Ubuntu 11.4.0-1ubuntu1~22.04) 11.4.0"
	.section	.note.GNU-stack,"",@progbits
	.section	.note.gnu.property,"a"
	.align 8
	.long	1f - 0f
	.long	4f - 1f
	.long	5
0:
	.string	"GNU"
1:
	.align 8
	.long	0xc0000002
	.long	3f - 2f
2:
	.long	0x3
3:
	.align 8
4:
